
target/riscv32-blog_os/debug/rcore32:     file format elf32-littleriscv


Disassembly of section .text:

c0020000 <_start>:
c0020000:	00150293          	addi	t0,a0,1
c0020004:	01029293          	slli	t0,t0,0x10
c0020008:	c0025137          	lui	sp,0xc0025
c002000c:	00010113          	mv	sp,sp
c0020010:	00510133          	add	sp,sp,t0
c0020014:	00004097          	auipc	ra,0x4
c0020018:	b5c080e7          	jalr	-1188(ra) # c0023b70 <rust_main>

c002001c <__alltraps>:
c002001c:	14011173          	csrrw	sp,sscratch,sp
c0020020:	00011463          	bnez	sp,c0020028 <_save_context>

c0020024 <_restore_kernel_sp>:
c0020024:	14002173          	csrr	sp,sscratch

c0020028 <_save_context>:
c0020028:	f7010113          	addi	sp,sp,-144 # c0024f70 <bootstacktop+0xfff7ff70>
c002002c:	00112223          	sw	ra,4(sp)
c0020030:	00312623          	sw	gp,12(sp)
c0020034:	00512a23          	sw	t0,20(sp)
c0020038:	00612c23          	sw	t1,24(sp)
c002003c:	00712e23          	sw	t2,28(sp)
c0020040:	02812023          	sw	s0,32(sp)
c0020044:	02912223          	sw	s1,36(sp)
c0020048:	02a12423          	sw	a0,40(sp)
c002004c:	02b12623          	sw	a1,44(sp)
c0020050:	02c12823          	sw	a2,48(sp)
c0020054:	02d12a23          	sw	a3,52(sp)
c0020058:	02e12c23          	sw	a4,56(sp)
c002005c:	02f12e23          	sw	a5,60(sp)
c0020060:	05012023          	sw	a6,64(sp)
c0020064:	05112223          	sw	a7,68(sp)
c0020068:	05212423          	sw	s2,72(sp)
c002006c:	05312623          	sw	s3,76(sp)
c0020070:	05412823          	sw	s4,80(sp)
c0020074:	05512a23          	sw	s5,84(sp)
c0020078:	05612c23          	sw	s6,88(sp)
c002007c:	05712e23          	sw	s7,92(sp)
c0020080:	07812023          	sw	s8,96(sp)
c0020084:	07912223          	sw	s9,100(sp)
c0020088:	07a12423          	sw	s10,104(sp)
c002008c:	07b12623          	sw	s11,108(sp)
c0020090:	07c12823          	sw	t3,112(sp)
c0020094:	07d12a23          	sw	t4,116(sp)
c0020098:	07e12c23          	sw	t5,120(sp)
c002009c:	07f12e23          	sw	t6,124(sp)
c00200a0:	14001473          	csrrw	s0,sscratch,zero
c00200a4:	100024f3          	csrr	s1,sstatus
c00200a8:	14102973          	csrr	s2,sepc
c00200ac:	143029f3          	csrr	s3,stval
c00200b0:	14202a73          	csrr	s4,scause
c00200b4:	00812423          	sw	s0,8(sp)
c00200b8:	08912023          	sw	s1,128(sp)
c00200bc:	09212223          	sw	s2,132(sp)
c00200c0:	09312423          	sw	s3,136(sp)
c00200c4:	09412623          	sw	s4,140(sp)
c00200c8:	00010513          	mv	a0,sp
c00200cc:	280000ef          	jal	ra,c002034c <rust_trap>

c00200d0 <__trapret>:
c00200d0:	08012483          	lw	s1,128(sp)
c00200d4:	08412903          	lw	s2,132(sp)
c00200d8:	1004f413          	andi	s0,s1,256
c00200dc:	00041663          	bnez	s0,c00200e8 <_restore_context>

c00200e0 <_save_kernel_sp>:
c00200e0:	09010413          	addi	s0,sp,144
c00200e4:	14041073          	csrw	sscratch,s0

c00200e8 <_restore_context>:
c00200e8:	10049073          	csrw	sstatus,s1
c00200ec:	14191073          	csrw	sepc,s2
c00200f0:	00412083          	lw	ra,4(sp)
c00200f4:	00c12183          	lw	gp,12(sp)
c00200f8:	01412283          	lw	t0,20(sp)
c00200fc:	01812303          	lw	t1,24(sp)
c0020100:	01c12383          	lw	t2,28(sp)
c0020104:	02012403          	lw	s0,32(sp)
c0020108:	02412483          	lw	s1,36(sp)
c002010c:	02812503          	lw	a0,40(sp)
c0020110:	02c12583          	lw	a1,44(sp)
c0020114:	03012603          	lw	a2,48(sp)
c0020118:	03412683          	lw	a3,52(sp)
c002011c:	03812703          	lw	a4,56(sp)
c0020120:	03c12783          	lw	a5,60(sp)
c0020124:	04012803          	lw	a6,64(sp)
c0020128:	04412883          	lw	a7,68(sp)
c002012c:	04812903          	lw	s2,72(sp)
c0020130:	04c12983          	lw	s3,76(sp)
c0020134:	05012a03          	lw	s4,80(sp)
c0020138:	05412a83          	lw	s5,84(sp)
c002013c:	05812b03          	lw	s6,88(sp)
c0020140:	05c12b83          	lw	s7,92(sp)
c0020144:	06012c03          	lw	s8,96(sp)
c0020148:	06412c83          	lw	s9,100(sp)
c002014c:	06812d03          	lw	s10,104(sp)
c0020150:	06c12d83          	lw	s11,108(sp)
c0020154:	07012e03          	lw	t3,112(sp)
c0020158:	07412e83          	lw	t4,116(sp)
c002015c:	07812f03          	lw	t5,120(sp)
c0020160:	07c12f83          	lw	t6,124(sp)
c0020164:	00812103          	lw	sp,8(sp)
c0020168:	10200073          	sret

c002016c <init>:
c002016c:	f3010113          	addi	sp,sp,-208
c0020170:	0c112623          	sw	ra,204(sp)
c0020174:	c0024537          	lui	a0,0xc0024
c0020178:	0c050593          	addi	a1,a0,192 # c00240c0 <bootstacktop+0xfff7f0c0>
c002017c:	c0024537          	lui	a0,0xc0024
c0020180:	09450693          	addi	a3,a0,148 # c0024094 <bootstacktop+0xfff7f094>
c0020184:	00000513          	li	a0,0
c0020188:	04810613          	addi	a2,sp,72
c002018c:	00100713          	li	a4,1
c0020190:	00a12e23          	sw	a0,28(sp)
c0020194:	00060513          	mv	a0,a2
c0020198:	00070613          	mv	a2,a4
c002019c:	01c12703          	lw	a4,28(sp)
c00201a0:	00002097          	auipc	ra,0x2
c00201a4:	aa0080e7          	jalr	-1376(ra) # c0021c40 <_ZN4core3fmt9Arguments6new_v117hc9a772a58b64bf16E>
c00201a8:	0040006f          	j	c00201ac <init+0x40>
c00201ac:	04810513          	addi	a0,sp,72
c00201b0:	06a12023          	sw	a0,96(sp)
c00201b4:	04a12223          	sw	a0,68(sp)
c00201b8:	c00205b7          	lui	a1,0xc0020
c00201bc:	63c58593          	addi	a1,a1,1596 # c002063c <bootstacktop+0xfff7b63c>
c00201c0:	00000097          	auipc	ra,0x0
c00201c4:	3cc080e7          	jalr	972(ra) # c002058c <_ZN4core3fmt10ArgumentV13new17h6576345e0293bb5bE>
c00201c8:	00b12c23          	sw	a1,24(sp)
c00201cc:	00a12a23          	sw	a0,20(sp)
c00201d0:	0040006f          	j	c00201d4 <init+0x68>
c00201d4:	01812503          	lw	a0,24(sp)
c00201d8:	02a12e23          	sw	a0,60(sp)
c00201dc:	01412583          	lw	a1,20(sp)
c00201e0:	02b12c23          	sw	a1,56(sp)
c00201e4:	c0024637          	lui	a2,0xc0024
c00201e8:	09860593          	addi	a1,a2,152 # c0024098 <bootstacktop+0xfff7f098>
c00201ec:	02010513          	addi	a0,sp,32
c00201f0:	00200613          	li	a2,2
c00201f4:	03810693          	addi	a3,sp,56
c00201f8:	00100713          	li	a4,1
c00201fc:	00002097          	auipc	ra,0x2
c0020200:	a44080e7          	jalr	-1468(ra) # c0021c40 <_ZN4core3fmt9Arguments6new_v117hc9a772a58b64bf16E>
c0020204:	0040006f          	j	c0020208 <init+0x9c>
c0020208:	02010513          	addi	a0,sp,32
c002020c:	00002097          	auipc	ra,0x2
c0020210:	c88080e7          	jalr	-888(ra) # c0021e94 <_ZN7rcore322io6_print17hf550fc77485105c8E>
c0020214:	0040006f          	j	c0020218 <init+0xac>
c0020218:	00000513          	li	a0,0
c002021c:	0aa12a23          	sw	a0,180(sp)
c0020220:	0aa12823          	sw	a0,176(sp)
c0020224:	14051073          	csrw	sscratch,a0
c0020228:	0040006f          	j	c002022c <init+0xc0>
c002022c:	00000513          	li	a0,0
c0020230:	06a103a3          	sb	a0,103(sp)
c0020234:	0aa10fa3          	sb	a0,191(sp)
c0020238:	c0020537          	lui	a0,0xc0020
c002023c:	01c50513          	addi	a0,a0,28 # c002001c <bootstacktop+0xfff7b01c>
c0020240:	0aa12c23          	sw	a0,184(sp)
c0020244:	00100593          	li	a1,1
c0020248:	00a12823          	sw	a0,16(sp)
c002024c:	02059063          	bnez	a1,c002026c <init+0x100>
c0020250:	0040006f          	j	c0020254 <init+0xe8>
c0020254:	c0024537          	lui	a0,0xc0024
c0020258:	07c50513          	addi	a0,a0,124 # c002407c <bootstacktop+0xfff7f07c>
c002025c:	00001097          	auipc	ra,0x1
c0020260:	2fc080e7          	jalr	764(ra) # c0021558 <_ZN4core9panicking5panic17habb8bf93ce0fcf0dE>
c0020264:	00001097          	auipc	ra,0x1
c0020268:	674080e7          	jalr	1652(ra) # c00218d8 <abort>
c002026c:	01012503          	lw	a0,16(sp)
c0020270:	0ca12023          	sw	a0,192(sp)
c0020274:	10551073          	csrw	stvec,a0
c0020278:	0040006f          	j	c002027c <init+0x110>
c002027c:	00200513          	li	a0,2
c0020280:	0ca12223          	sw	a0,196(sp)
c0020284:	10452073          	csrs	sie,a0
c0020288:	0040006f          	j	c002028c <init+0x120>
c002028c:	20000513          	li	a0,512
c0020290:	0ca12423          	sw	a0,200(sp)
c0020294:	10452073          	csrs	sie,a0
c0020298:	0040006f          	j	c002029c <init+0x130>
c002029c:	c0024537          	lui	a0,0xc0024
c00202a0:	0e050593          	addi	a1,a0,224 # c00240e0 <bootstacktop+0xfff7f0e0>
c00202a4:	c0024537          	lui	a0,0xc0024
c00202a8:	09450693          	addi	a3,a0,148 # c0024094 <bootstacktop+0xfff7f094>
c00202ac:	00000513          	li	a0,0
c00202b0:	09010613          	addi	a2,sp,144
c00202b4:	00100713          	li	a4,1
c00202b8:	00a12623          	sw	a0,12(sp)
c00202bc:	00060513          	mv	a0,a2
c00202c0:	00070613          	mv	a2,a4
c00202c4:	00c12703          	lw	a4,12(sp)
c00202c8:	00002097          	auipc	ra,0x2
c00202cc:	978080e7          	jalr	-1672(ra) # c0021c40 <_ZN4core3fmt9Arguments6new_v117hc9a772a58b64bf16E>
c00202d0:	0040006f          	j	c00202d4 <init+0x168>
c00202d4:	09010513          	addi	a0,sp,144
c00202d8:	0aa12623          	sw	a0,172(sp)
c00202dc:	08a12623          	sw	a0,140(sp)
c00202e0:	c00205b7          	lui	a1,0xc0020
c00202e4:	63c58593          	addi	a1,a1,1596 # c002063c <bootstacktop+0xfff7b63c>
c00202e8:	00000097          	auipc	ra,0x0
c00202ec:	2a4080e7          	jalr	676(ra) # c002058c <_ZN4core3fmt10ArgumentV13new17h6576345e0293bb5bE>
c00202f0:	00b12423          	sw	a1,8(sp)
c00202f4:	00a12223          	sw	a0,4(sp)
c00202f8:	0040006f          	j	c00202fc <init+0x190>
c00202fc:	00812503          	lw	a0,8(sp)
c0020300:	08a12223          	sw	a0,132(sp)
c0020304:	00412583          	lw	a1,4(sp)
c0020308:	08b12023          	sw	a1,128(sp)
c002030c:	c0024637          	lui	a2,0xc0024
c0020310:	09860593          	addi	a1,a2,152 # c0024098 <bootstacktop+0xfff7f098>
c0020314:	06810513          	addi	a0,sp,104
c0020318:	00200613          	li	a2,2
c002031c:	08010693          	addi	a3,sp,128
c0020320:	00100713          	li	a4,1
c0020324:	00002097          	auipc	ra,0x2
c0020328:	91c080e7          	jalr	-1764(ra) # c0021c40 <_ZN4core3fmt9Arguments6new_v117hc9a772a58b64bf16E>
c002032c:	0040006f          	j	c0020330 <init+0x1c4>
c0020330:	06810513          	addi	a0,sp,104
c0020334:	00002097          	auipc	ra,0x2
c0020338:	b60080e7          	jalr	-1184(ra) # c0021e94 <_ZN7rcore322io6_print17hf550fc77485105c8E>
c002033c:	0040006f          	j	c0020340 <init+0x1d4>
c0020340:	0cc12083          	lw	ra,204(sp)
c0020344:	0d010113          	addi	sp,sp,208
c0020348:	00008067          	ret

c002034c <rust_trap>:
c002034c:	fe010113          	addi	sp,sp,-32
c0020350:	00112e23          	sw	ra,28(sp)
c0020354:	00a12a23          	sw	a0,20(sp)
c0020358:	08c50593          	addi	a1,a0,140
c002035c:	00a12823          	sw	a0,16(sp)
c0020360:	00058513          	mv	a0,a1
c0020364:	00003097          	auipc	ra,0x3
c0020368:	28c080e7          	jalr	652(ra) # c00235f0 <_ZN5riscv8register6mcause6Mcause5cause17h640cefa561bcdc92E>
c002036c:	00b10ca3          	sb	a1,25(sp)
c0020370:	00a10c23          	sb	a0,24(sp)
c0020374:	01012503          	lw	a0,16(sp)
c0020378:	00a12623          	sw	a0,12(sp)
c002037c:	0040006f          	j	c0020380 <rust_trap+0x34>
c0020380:	01814503          	lbu	a0,24(sp)
c0020384:	00157513          	andi	a0,a0,1
c0020388:	02051a63          	bnez	a0,c00203bc <rust_trap+0x70>
c002038c:	0040006f          	j	c0020390 <rust_trap+0x44>
c0020390:	01412503          	lw	a0,20(sp)
c0020394:	00003097          	auipc	ra,0x3
c0020398:	690080e7          	jalr	1680(ra) # c0023a24 <_ZN7rcore327context9TrapFrame15print_trapframe17hdbb8811634fe78e1E>
c002039c:	0880006f          	j	c0020424 <rust_trap+0xd8>
c00203a0:	c0024537          	lui	a0,0xc0024
c00203a4:	15050513          	addi	a0,a0,336 # c0024150 <bootstacktop+0xfff7f150>
c00203a8:	00001097          	auipc	ra,0x1
c00203ac:	1b0080e7          	jalr	432(ra) # c0021558 <_ZN4core9panicking5panic17habb8bf93ce0fcf0dE>
c00203b0:	00001097          	auipc	ra,0x1
c00203b4:	528080e7          	jalr	1320(ra) # c00218d8 <abort>
c00203b8:	0280006f          	j	c00203e0 <rust_trap+0x94>
c00203bc:	01914503          	lbu	a0,25(sp)
c00203c0:	00300593          	li	a1,3
c00203c4:	00a12423          	sw	a0,8(sp)
c00203c8:	fcb50ce3          	beq	a0,a1,c00203a0 <rust_trap+0x54>
c00203cc:	0040006f          	j	c00203d0 <rust_trap+0x84>
c00203d0:	00a00513          	li	a0,10
c00203d4:	00812583          	lw	a1,8(sp)
c00203d8:	fea580e3          	beq	a1,a0,c00203b8 <rust_trap+0x6c>
c00203dc:	fb5ff06f          	j	c0020390 <rust_trap+0x44>
c00203e0:	01412503          	lw	a0,20(sp)
c00203e4:	04452503          	lw	a0,68(a0)
c00203e8:	00900593          	li	a1,9
c00203ec:	02b51063          	bne	a0,a1,c002040c <rust_trap+0xc0>
c00203f0:	0040006f          	j	c00203f4 <rust_trap+0xa8>
c00203f4:	c0024537          	lui	a0,0xc0024
c00203f8:	11c50513          	addi	a0,a0,284 # c002411c <bootstacktop+0xfff7f11c>
c00203fc:	00001097          	auipc	ra,0x1
c0020400:	15c080e7          	jalr	348(ra) # c0021558 <_ZN4core9panicking5panic17habb8bf93ce0fcf0dE>
c0020404:	00001097          	auipc	ra,0x1
c0020408:	4d4080e7          	jalr	1236(ra) # c00218d8 <abort>
c002040c:	c0024537          	lui	a0,0xc0024
c0020410:	10050513          	addi	a0,a0,256 # c0024100 <bootstacktop+0xfff7f100>
c0020414:	00001097          	auipc	ra,0x1
c0020418:	144080e7          	jalr	324(ra) # c0021558 <_ZN4core9panicking5panic17habb8bf93ce0fcf0dE>
c002041c:	00001097          	auipc	ra,0x1
c0020420:	4bc080e7          	jalr	1212(ra) # c00218d8 <abort>
c0020424:	01412503          	lw	a0,20(sp)
c0020428:	00003097          	auipc	ra,0x3
c002042c:	5a4080e7          	jalr	1444(ra) # c00239cc <_ZN7rcore327context9TrapFrame13increase_sepc17hc13e73a38041dcdaE>
c0020430:	0040006f          	j	c0020434 <rust_trap+0xe8>
c0020434:	01c12083          	lw	ra,28(sp)
c0020438:	02010113          	addi	sp,sp,32
c002043c:	00008067          	ret

c0020440 <_ZN44_$LT$$RF$T$u20$as$u20$core..fmt..Display$GT$3fmt17h36f457181033726bE>:
c0020440:	fe010113          	addi	sp,sp,-32
c0020444:	00112e23          	sw	ra,28(sp)
c0020448:	00b12c23          	sw	a1,24(sp)
c002044c:	00a12a23          	sw	a0,20(sp)
c0020450:	00052603          	lw	a2,0(a0)
c0020454:	00a12823          	sw	a0,16(sp)
c0020458:	00060513          	mv	a0,a2
c002045c:	00b12623          	sw	a1,12(sp)
c0020460:	00000097          	auipc	ra,0x0
c0020464:	1dc080e7          	jalr	476(ra) # c002063c <_ZN73_$LT$core..fmt..Arguments$LT$$u27$_$GT$$u20$as$u20$core..fmt..Display$GT$3fmt17h8ea1d2f1cc2160dfE>
c0020468:	00c12583          	lw	a1,12(sp)
c002046c:	01012603          	lw	a2,16(sp)
c0020470:	00b12423          	sw	a1,8(sp)
c0020474:	00c12223          	sw	a2,4(sp)
c0020478:	00a12023          	sw	a0,0(sp)
c002047c:	0040006f          	j	c0020480 <_ZN44_$LT$$RF$T$u20$as$u20$core..fmt..Display$GT$3fmt17h36f457181033726bE+0x40>
c0020480:	00012503          	lw	a0,0(sp)
c0020484:	01c12083          	lw	ra,28(sp)
c0020488:	02010113          	addi	sp,sp,32
c002048c:	00008067          	ret

c0020490 <_ZN4core3fmt10ArgumentV13new17h1e2051a84d1ba9a2E>:
c0020490:	fd010113          	addi	sp,sp,-48
c0020494:	00b12e23          	sw	a1,28(sp)
c0020498:	02b12423          	sw	a1,40(sp)
c002049c:	00058613          	mv	a2,a1
c00204a0:	00a12c23          	sw	a0,24(sp)
c00204a4:	00c12a23          	sw	a2,20(sp)
c00204a8:	00b12823          	sw	a1,16(sp)
c00204ac:	00a12623          	sw	a0,12(sp)
c00204b0:	0040006f          	j	c00204b4 <_ZN4core3fmt10ArgumentV13new17h1e2051a84d1ba9a2E+0x24>
c00204b4:	01812503          	lw	a0,24(sp)
c00204b8:	02a12623          	sw	a0,44(sp)
c00204bc:	00a12423          	sw	a0,8(sp)
c00204c0:	0040006f          	j	c00204c4 <_ZN4core3fmt10ArgumentV13new17h1e2051a84d1ba9a2E+0x34>
c00204c4:	01412503          	lw	a0,20(sp)
c00204c8:	02a12223          	sw	a0,36(sp)
c00204cc:	00812583          	lw	a1,8(sp)
c00204d0:	02b12023          	sw	a1,32(sp)
c00204d4:	00058513          	mv	a0,a1
c00204d8:	01412583          	lw	a1,20(sp)
c00204dc:	03010113          	addi	sp,sp,48
c00204e0:	00008067          	ret

c00204e4 <_ZN4core3fmt10ArgumentV13new17h2724bddd433b3160E>:
c00204e4:	fd010113          	addi	sp,sp,-48
c00204e8:	00b12e23          	sw	a1,28(sp)
c00204ec:	02b12423          	sw	a1,40(sp)
c00204f0:	00058613          	mv	a2,a1
c00204f4:	00a12c23          	sw	a0,24(sp)
c00204f8:	00c12a23          	sw	a2,20(sp)
c00204fc:	00b12823          	sw	a1,16(sp)
c0020500:	00a12623          	sw	a0,12(sp)
c0020504:	0040006f          	j	c0020508 <_ZN4core3fmt10ArgumentV13new17h2724bddd433b3160E+0x24>
c0020508:	01812503          	lw	a0,24(sp)
c002050c:	02a12623          	sw	a0,44(sp)
c0020510:	00a12423          	sw	a0,8(sp)
c0020514:	0040006f          	j	c0020518 <_ZN4core3fmt10ArgumentV13new17h2724bddd433b3160E+0x34>
c0020518:	01412503          	lw	a0,20(sp)
c002051c:	02a12223          	sw	a0,36(sp)
c0020520:	00812583          	lw	a1,8(sp)
c0020524:	02b12023          	sw	a1,32(sp)
c0020528:	00058513          	mv	a0,a1
c002052c:	01412583          	lw	a1,20(sp)
c0020530:	03010113          	addi	sp,sp,48
c0020534:	00008067          	ret

c0020538 <_ZN4core3fmt10ArgumentV13new17h50a1dfb09305a494E>:
c0020538:	fd010113          	addi	sp,sp,-48
c002053c:	00b12e23          	sw	a1,28(sp)
c0020540:	02b12423          	sw	a1,40(sp)
c0020544:	00058613          	mv	a2,a1
c0020548:	00a12c23          	sw	a0,24(sp)
c002054c:	00c12a23          	sw	a2,20(sp)
c0020550:	00b12823          	sw	a1,16(sp)
c0020554:	00a12623          	sw	a0,12(sp)
c0020558:	0040006f          	j	c002055c <_ZN4core3fmt10ArgumentV13new17h50a1dfb09305a494E+0x24>
c002055c:	01812503          	lw	a0,24(sp)
c0020560:	02a12623          	sw	a0,44(sp)
c0020564:	00a12423          	sw	a0,8(sp)
c0020568:	0040006f          	j	c002056c <_ZN4core3fmt10ArgumentV13new17h50a1dfb09305a494E+0x34>
c002056c:	01412503          	lw	a0,20(sp)
c0020570:	02a12223          	sw	a0,36(sp)
c0020574:	00812583          	lw	a1,8(sp)
c0020578:	02b12023          	sw	a1,32(sp)
c002057c:	00058513          	mv	a0,a1
c0020580:	01412583          	lw	a1,20(sp)
c0020584:	03010113          	addi	sp,sp,48
c0020588:	00008067          	ret

c002058c <_ZN4core3fmt10ArgumentV13new17h6576345e0293bb5bE>:
c002058c:	fd010113          	addi	sp,sp,-48
c0020590:	00b12e23          	sw	a1,28(sp)
c0020594:	02b12423          	sw	a1,40(sp)
c0020598:	00058613          	mv	a2,a1
c002059c:	00a12c23          	sw	a0,24(sp)
c00205a0:	00c12a23          	sw	a2,20(sp)
c00205a4:	00b12823          	sw	a1,16(sp)
c00205a8:	00a12623          	sw	a0,12(sp)
c00205ac:	0040006f          	j	c00205b0 <_ZN4core3fmt10ArgumentV13new17h6576345e0293bb5bE+0x24>
c00205b0:	01812503          	lw	a0,24(sp)
c00205b4:	02a12623          	sw	a0,44(sp)
c00205b8:	00a12423          	sw	a0,8(sp)
c00205bc:	0040006f          	j	c00205c0 <_ZN4core3fmt10ArgumentV13new17h6576345e0293bb5bE+0x34>
c00205c0:	01412503          	lw	a0,20(sp)
c00205c4:	02a12223          	sw	a0,36(sp)
c00205c8:	00812583          	lw	a1,8(sp)
c00205cc:	02b12023          	sw	a1,32(sp)
c00205d0:	00058513          	mv	a0,a1
c00205d4:	01412583          	lw	a1,20(sp)
c00205d8:	03010113          	addi	sp,sp,48
c00205dc:	00008067          	ret

c00205e0 <_ZN4core3fmt10ArgumentV13new17hb8b327cc3f7153d7E>:
c00205e0:	fd010113          	addi	sp,sp,-48
c00205e4:	00b12e23          	sw	a1,28(sp)
c00205e8:	02b12423          	sw	a1,40(sp)
c00205ec:	00058613          	mv	a2,a1
c00205f0:	00a12c23          	sw	a0,24(sp)
c00205f4:	00c12a23          	sw	a2,20(sp)
c00205f8:	00b12823          	sw	a1,16(sp)
c00205fc:	00a12623          	sw	a0,12(sp)
c0020600:	0040006f          	j	c0020604 <_ZN4core3fmt10ArgumentV13new17hb8b327cc3f7153d7E+0x24>
c0020604:	01812503          	lw	a0,24(sp)
c0020608:	02a12623          	sw	a0,44(sp)
c002060c:	00a12423          	sw	a0,8(sp)
c0020610:	0040006f          	j	c0020614 <_ZN4core3fmt10ArgumentV13new17hb8b327cc3f7153d7E+0x34>
c0020614:	01412503          	lw	a0,20(sp)
c0020618:	02a12223          	sw	a0,36(sp)
c002061c:	00812583          	lw	a1,8(sp)
c0020620:	02b12023          	sw	a1,32(sp)
c0020624:	00058513          	mv	a0,a1
c0020628:	01412583          	lw	a1,20(sp)
c002062c:	03010113          	addi	sp,sp,48
c0020630:	00008067          	ret

c0020634 <_ZN4core3fmt10ArgumentV110show_usize17hdf5a4ff134310133E.llvm.5593300306986705531>:
c0020634:	00001317          	auipc	t1,0x1
c0020638:	d0830067          	jr	-760(t1) # c002133c <_ZN4core3fmt3num3imp52_$LT$impl$u20$core..fmt..Display$u20$for$u20$u32$GT$3fmt17hdc6d0ba1fe049ed3E>

c002063c <_ZN73_$LT$core..fmt..Arguments$LT$$u27$_$GT$$u20$as$u20$core..fmt..Display$GT$3fmt17h8ea1d2f1cc2160dfE>:
c002063c:	fe010113          	addi	sp,sp,-32
c0020640:	00112e23          	sw	ra,28(sp)
c0020644:	01c5a683          	lw	a3,28(a1)
c0020648:	0185a583          	lw	a1,24(a1)
c002064c:	01452603          	lw	a2,20(a0)
c0020650:	00c12a23          	sw	a2,20(sp)
c0020654:	01052603          	lw	a2,16(a0)
c0020658:	00c12823          	sw	a2,16(sp)
c002065c:	00c52603          	lw	a2,12(a0)
c0020660:	00c12623          	sw	a2,12(sp)
c0020664:	00852603          	lw	a2,8(a0)
c0020668:	00c12423          	sw	a2,8(sp)
c002066c:	00452603          	lw	a2,4(a0)
c0020670:	00c12223          	sw	a2,4(sp)
c0020674:	00052503          	lw	a0,0(a0)
c0020678:	00a12023          	sw	a0,0(sp)
c002067c:	00010613          	mv	a2,sp
c0020680:	00058513          	mv	a0,a1
c0020684:	00068593          	mv	a1,a3
c0020688:	00000097          	auipc	ra,0x0
c002068c:	014080e7          	jalr	20(ra) # c002069c <_ZN4core3fmt5write17h0d557cf506f03ea5E>
c0020690:	01c12083          	lw	ra,28(sp)
c0020694:	02010113          	addi	sp,sp,32
c0020698:	00008067          	ret

c002069c <_ZN4core3fmt5write17h0d557cf506f03ea5E>:
c002069c:	f9010113          	addi	sp,sp,-112
c00206a0:	06112623          	sw	ra,108(sp)
c00206a4:	06912423          	sw	s1,104(sp)
c00206a8:	07212223          	sw	s2,100(sp)
c00206ac:	07312023          	sw	s3,96(sp)
c00206b0:	05412e23          	sw	s4,92(sp)
c00206b4:	05512c23          	sw	s5,88(sp)
c00206b8:	05612a23          	sw	s6,84(sp)
c00206bc:	05712823          	sw	s7,80(sp)
c00206c0:	05812623          	sw	s8,76(sp)
c00206c4:	05912423          	sw	s9,72(sp)
c00206c8:	05a12223          	sw	s10,68(sp)
c00206cc:	05b12023          	sw	s11,64(sp)
c00206d0:	00060493          	mv	s1,a2
c00206d4:	00058993          	mv	s3,a1
c00206d8:	00050913          	mv	s2,a0
c00206dc:	01062b83          	lw	s7,16(a2)
c00206e0:	01462503          	lw	a0,20(a2)
c00206e4:	00300b13          	li	s6,3
c00206e8:	03610c23          	sb	s6,56(sp)
c00206ec:	02000593          	li	a1,32
c00206f0:	00b12623          	sw	a1,12(sp)
c00206f4:	03312223          	sw	s3,36(sp)
c00206f8:	03212023          	sw	s2,32(sp)
c00206fc:	00351593          	slli	a1,a0,0x3
c0020700:	00bb85b3          	add	a1,s7,a1
c0020704:	02b12623          	sw	a1,44(sp)
c0020708:	02a12a23          	sw	a0,52(sp)
c002070c:	03712823          	sw	s7,48(sp)
c0020710:	03712423          	sw	s7,40(sp)
c0020714:	00012423          	sw	zero,8(sp)
c0020718:	00012c23          	sw	zero,24(sp)
c002071c:	00012823          	sw	zero,16(sp)
c0020720:	00862c83          	lw	s9,8(a2)
c0020724:	1e0c8463          	beqz	s9,c002090c <_ZN4core3fmt5write17h0d557cf506f03ea5E+0x270>
c0020728:	00c4a503          	lw	a0,12(s1)
c002072c:	02400a13          	li	s4,36
c0020730:	000a0593          	mv	a1,s4
c0020734:	00001097          	auipc	ra,0x1
c0020738:	f9c080e7          	jalr	-100(ra) # c00216d0 <__mulsi3>
c002073c:	000a0593          	mv	a1,s4
c0020740:	00002097          	auipc	ra,0x2
c0020744:	6ac080e7          	jalr	1708(ra) # c0022dec <__udivsi3>
c0020748:	0044aa03          	lw	s4,4(s1)
c002074c:	000a0b93          	mv	s7,s4
c0020750:	00aa6463          	bltu	s4,a0,c0020758 <_ZN4core3fmt5write17h0d557cf506f03ea5E+0xbc>
c0020754:	00050b93          	mv	s7,a0
c0020758:	0004aa83          	lw	s5,0(s1)
c002075c:	220b8a63          	beqz	s7,c0020990 <_ZN4core3fmt5write17h0d557cf506f03ea5E+0x2f4>
c0020760:	00c9a683          	lw	a3,12(s3)
c0020764:	004aa603          	lw	a2,4(s5)
c0020768:	000aa583          	lw	a1,0(s5)
c002076c:	00090513          	mv	a0,s2
c0020770:	000680e7          	jalr	a3
c0020774:	24051463          	bnez	a0,c00209bc <_ZN4core3fmt5write17h0d557cf506f03ea5E+0x320>
c0020778:	00100993          	li	s3,1
c002077c:	00ca8c13          	addi	s8,s5,12
c0020780:	010c8493          	addi	s1,s9,16
c0020784:	c0020537          	lui	a0,0xc0020
c0020788:	63450d13          	addi	s10,a0,1588 # c0020634 <bootstacktop+0xfff7b634>
c002078c:	00810913          	addi	s2,sp,8
c0020790:	00200d93          	li	s11,2
c0020794:	00098c93          	mv	s9,s3
c0020798:	ff84a503          	lw	a0,-8(s1)
c002079c:	00a12623          	sw	a0,12(sp)
c00207a0:	01048503          	lb	a0,16(s1)
c00207a4:	02a10c23          	sb	a0,56(sp)
c00207a8:	ffc4a503          	lw	a0,-4(s1)
c00207ac:	00a12423          	sw	a0,8(sp)
c00207b0:	00c4a583          	lw	a1,12(s1)
c00207b4:	0084a503          	lw	a0,8(s1)
c00207b8:	03350863          	beq	a0,s3,c00207e8 <_ZN4core3fmt5write17h0d557cf506f03ea5E+0x14c>
c00207bc:	03650263          	beq	a0,s6,c00207e0 <_ZN4core3fmt5write17h0d557cf506f03ea5E+0x144>
c00207c0:	05b51663          	bne	a0,s11,c002080c <_ZN4core3fmt5write17h0d557cf506f03ea5E+0x170>
c00207c4:	02812503          	lw	a0,40(sp)
c00207c8:	02c12583          	lw	a1,44(sp)
c00207cc:	00b50a63          	beq	a0,a1,c00207e0 <_ZN4core3fmt5write17h0d557cf506f03ea5E+0x144>
c00207d0:	00850593          	addi	a1,a0,8
c00207d4:	02b12423          	sw	a1,40(sp)
c00207d8:	00452583          	lw	a1,4(a0)
c00207dc:	03a58463          	beq	a1,s10,c0020804 <_ZN4core3fmt5write17h0d557cf506f03ea5E+0x168>
c00207e0:	00000513          	li	a0,0
c00207e4:	02c0006f          	j	c0020810 <_ZN4core3fmt5write17h0d557cf506f03ea5E+0x174>
c00207e8:	03412603          	lw	a2,52(sp)
c00207ec:	22c5f663          	bleu	a2,a1,c0020a18 <_ZN4core3fmt5write17h0d557cf506f03ea5E+0x37c>
c00207f0:	00359513          	slli	a0,a1,0x3
c00207f4:	03012583          	lw	a1,48(sp)
c00207f8:	00a58533          	add	a0,a1,a0
c00207fc:	00452583          	lw	a1,4(a0)
c0020800:	ffa590e3          	bne	a1,s10,c00207e0 <_ZN4core3fmt5write17h0d557cf506f03ea5E+0x144>
c0020804:	00052503          	lw	a0,0(a0)
c0020808:	00052583          	lw	a1,0(a0)
c002080c:	00098513          	mv	a0,s3
c0020810:	00b12a23          	sw	a1,20(sp)
c0020814:	00a12823          	sw	a0,16(sp)
c0020818:	0044a583          	lw	a1,4(s1)
c002081c:	0004a503          	lw	a0,0(s1)
c0020820:	05350c63          	beq	a0,s3,c0020878 <_ZN4core3fmt5write17h0d557cf506f03ea5E+0x1dc>
c0020824:	03650263          	beq	a0,s6,c0020848 <_ZN4core3fmt5write17h0d557cf506f03ea5E+0x1ac>
c0020828:	07b51a63          	bne	a0,s11,c002089c <_ZN4core3fmt5write17h0d557cf506f03ea5E+0x200>
c002082c:	02812503          	lw	a0,40(sp)
c0020830:	02c12583          	lw	a1,44(sp)
c0020834:	00b50a63          	beq	a0,a1,c0020848 <_ZN4core3fmt5write17h0d557cf506f03ea5E+0x1ac>
c0020838:	00850593          	addi	a1,a0,8
c002083c:	02b12423          	sw	a1,40(sp)
c0020840:	00452583          	lw	a1,4(a0)
c0020844:	05a58863          	beq	a1,s10,c0020894 <_ZN4core3fmt5write17h0d557cf506f03ea5E+0x1f8>
c0020848:	00000513          	li	a0,0
c002084c:	00b12e23          	sw	a1,28(sp)
c0020850:	00a12c23          	sw	a0,24(sp)
c0020854:	ff04a503          	lw	a0,-16(s1)
c0020858:	05351c63          	bne	a0,s3,c00208b0 <_ZN4core3fmt5write17h0d557cf506f03ea5E+0x214>
c002085c:	ff44a583          	lw	a1,-12(s1)
c0020860:	03412603          	lw	a2,52(sp)
c0020864:	18c5fe63          	bleu	a2,a1,c0020a00 <_ZN4core3fmt5write17h0d557cf506f03ea5E+0x364>
c0020868:	00359513          	slli	a0,a1,0x3
c002086c:	03012583          	lw	a1,48(sp)
c0020870:	00a58533          	add	a0,a1,a0
c0020874:	0500006f          	j	c00208c4 <_ZN4core3fmt5write17h0d557cf506f03ea5E+0x228>
c0020878:	03412603          	lw	a2,52(sp)
c002087c:	18c5fe63          	bleu	a2,a1,c0020a18 <_ZN4core3fmt5write17h0d557cf506f03ea5E+0x37c>
c0020880:	00359513          	slli	a0,a1,0x3
c0020884:	03012583          	lw	a1,48(sp)
c0020888:	00a58533          	add	a0,a1,a0
c002088c:	00452583          	lw	a1,4(a0)
c0020890:	fba59ce3          	bne	a1,s10,c0020848 <_ZN4core3fmt5write17h0d557cf506f03ea5E+0x1ac>
c0020894:	00052503          	lw	a0,0(a0)
c0020898:	00052583          	lw	a1,0(a0)
c002089c:	00098513          	mv	a0,s3
c00208a0:	00b12e23          	sw	a1,28(sp)
c00208a4:	00a12c23          	sw	a0,24(sp)
c00208a8:	ff04a503          	lw	a0,-16(s1)
c00208ac:	fb3508e3          	beq	a0,s3,c002085c <_ZN4core3fmt5write17h0d557cf506f03ea5E+0x1c0>
c00208b0:	02812503          	lw	a0,40(sp)
c00208b4:	02c12583          	lw	a1,44(sp)
c00208b8:	16b50c63          	beq	a0,a1,c0020a30 <_ZN4core3fmt5write17h0d557cf506f03ea5E+0x394>
c00208bc:	00850593          	addi	a1,a0,8
c00208c0:	02b12423          	sw	a1,40(sp)
c00208c4:	00450593          	addi	a1,a0,4
c00208c8:	0005a603          	lw	a2,0(a1)
c00208cc:	00052503          	lw	a0,0(a0)
c00208d0:	00090593          	mv	a1,s2
c00208d4:	000600e7          	jalr	a2
c00208d8:	0e051263          	bnez	a0,c00209bc <_ZN4core3fmt5write17h0d557cf506f03ea5E+0x320>
c00208dc:	0b7cfc63          	bleu	s7,s9,c0020994 <_ZN4core3fmt5write17h0d557cf506f03ea5E+0x2f8>
c00208e0:	02412503          	lw	a0,36(sp)
c00208e4:	00c52683          	lw	a3,12(a0)
c00208e8:	000c2603          	lw	a2,0(s8)
c00208ec:	ffcc2583          	lw	a1,-4(s8)
c00208f0:	02012503          	lw	a0,32(sp)
c00208f4:	000680e7          	jalr	a3
c00208f8:	008c0c13          	addi	s8,s8,8
c00208fc:	02448493          	addi	s1,s1,36
c0020900:	001c8c93          	addi	s9,s9,1
c0020904:	e8050ae3          	beqz	a0,c0020798 <_ZN4core3fmt5write17h0d557cf506f03ea5E+0xfc>
c0020908:	0b40006f          	j	c00209bc <_ZN4core3fmt5write17h0d557cf506f03ea5E+0x320>
c002090c:	0044aa03          	lw	s4,4(s1)
c0020910:	000a0b13          	mv	s6,s4
c0020914:	00aa6463          	bltu	s4,a0,c002091c <_ZN4core3fmt5write17h0d557cf506f03ea5E+0x280>
c0020918:	00050b13          	mv	s6,a0
c002091c:	0004aa83          	lw	s5,0(s1)
c0020920:	060b0863          	beqz	s6,c0020990 <_ZN4core3fmt5write17h0d557cf506f03ea5E+0x2f4>
c0020924:	00c9a683          	lw	a3,12(s3)
c0020928:	004aa603          	lw	a2,4(s5)
c002092c:	000aa583          	lw	a1,0(s5)
c0020930:	00090513          	mv	a0,s2
c0020934:	000680e7          	jalr	a3
c0020938:	08051263          	bnez	a0,c00209bc <_ZN4core3fmt5write17h0d557cf506f03ea5E+0x320>
c002093c:	00100c93          	li	s9,1
c0020940:	00810913          	addi	s2,sp,8
c0020944:	00000493          	li	s1,0
c0020948:	009b85b3          	add	a1,s7,s1
c002094c:	0005a503          	lw	a0,0(a1)
c0020950:	0045a603          	lw	a2,4(a1)
c0020954:	00090593          	mv	a1,s2
c0020958:	000600e7          	jalr	a2
c002095c:	06051063          	bnez	a0,c00209bc <_ZN4core3fmt5write17h0d557cf506f03ea5E+0x320>
c0020960:	036cfa63          	bleu	s6,s9,c0020994 <_ZN4core3fmt5write17h0d557cf506f03ea5E+0x2f8>
c0020964:	009a8533          	add	a0,s5,s1
c0020968:	00c52603          	lw	a2,12(a0)
c002096c:	00852583          	lw	a1,8(a0)
c0020970:	02412503          	lw	a0,36(sp)
c0020974:	00c52683          	lw	a3,12(a0)
c0020978:	02012503          	lw	a0,32(sp)
c002097c:	000680e7          	jalr	a3
c0020980:	00848493          	addi	s1,s1,8
c0020984:	001c8c93          	addi	s9,s9,1
c0020988:	fc0500e3          	beqz	a0,c0020948 <_ZN4core3fmt5write17h0d557cf506f03ea5E+0x2ac>
c002098c:	0300006f          	j	c00209bc <_ZN4core3fmt5write17h0d557cf506f03ea5E+0x320>
c0020990:	00000c93          	li	s9,0
c0020994:	034cf863          	bleu	s4,s9,c00209c4 <_ZN4core3fmt5write17h0d557cf506f03ea5E+0x328>
c0020998:	003c9513          	slli	a0,s9,0x3
c002099c:	00aa8533          	add	a0,s5,a0
c00209a0:	00452603          	lw	a2,4(a0)
c00209a4:	00052583          	lw	a1,0(a0)
c00209a8:	02412503          	lw	a0,36(sp)
c00209ac:	00c52683          	lw	a3,12(a0)
c00209b0:	02012503          	lw	a0,32(sp)
c00209b4:	000680e7          	jalr	a3
c00209b8:	00050663          	beqz	a0,c00209c4 <_ZN4core3fmt5write17h0d557cf506f03ea5E+0x328>
c00209bc:	00100513          	li	a0,1
c00209c0:	0080006f          	j	c00209c8 <_ZN4core3fmt5write17h0d557cf506f03ea5E+0x32c>
c00209c4:	00000513          	li	a0,0
c00209c8:	04012d83          	lw	s11,64(sp)
c00209cc:	04412d03          	lw	s10,68(sp)
c00209d0:	04812c83          	lw	s9,72(sp)
c00209d4:	04c12c03          	lw	s8,76(sp)
c00209d8:	05012b83          	lw	s7,80(sp)
c00209dc:	05412b03          	lw	s6,84(sp)
c00209e0:	05812a83          	lw	s5,88(sp)
c00209e4:	05c12a03          	lw	s4,92(sp)
c00209e8:	06012983          	lw	s3,96(sp)
c00209ec:	06412903          	lw	s2,100(sp)
c00209f0:	06812483          	lw	s1,104(sp)
c00209f4:	06c12083          	lw	ra,108(sp)
c00209f8:	07010113          	addi	sp,sp,112
c00209fc:	00008067          	ret
c0020a00:	c0024537          	lui	a0,0xc0024
c0020a04:	28c50513          	addi	a0,a0,652 # c002428c <bootstacktop+0xfff7f28c>
c0020a08:	00001097          	auipc	ra,0x1
c0020a0c:	bc4080e7          	jalr	-1084(ra) # c00215cc <_ZN4core9panicking18panic_bounds_check17h0effffac4c023f9aE>
c0020a10:	00001097          	auipc	ra,0x1
c0020a14:	ec8080e7          	jalr	-312(ra) # c00218d8 <abort>
c0020a18:	c0024537          	lui	a0,0xc0024
c0020a1c:	29c50513          	addi	a0,a0,668 # c002429c <bootstacktop+0xfff7f29c>
c0020a20:	00001097          	auipc	ra,0x1
c0020a24:	bac080e7          	jalr	-1108(ra) # c00215cc <_ZN4core9panicking18panic_bounds_check17h0effffac4c023f9aE>
c0020a28:	00001097          	auipc	ra,0x1
c0020a2c:	eb0080e7          	jalr	-336(ra) # c00218d8 <abort>
c0020a30:	c0024537          	lui	a0,0xc0024
c0020a34:	1fc50513          	addi	a0,a0,508 # c00241fc <bootstacktop+0xfff7f1fc>
c0020a38:	00001097          	auipc	ra,0x1
c0020a3c:	b20080e7          	jalr	-1248(ra) # c0021558 <_ZN4core9panicking5panic17habb8bf93ce0fcf0dE>
c0020a40:	00001097          	auipc	ra,0x1
c0020a44:	e98080e7          	jalr	-360(ra) # c00218d8 <abort>

c0020a48 <_ZN4core3fmt9Formatter12pad_integral17h34be0ee62990c990E>:
c0020a48:	fd010113          	addi	sp,sp,-48
c0020a4c:	02112623          	sw	ra,44(sp)
c0020a50:	02912423          	sw	s1,40(sp)
c0020a54:	03212223          	sw	s2,36(sp)
c0020a58:	03312023          	sw	s3,32(sp)
c0020a5c:	01412e23          	sw	s4,28(sp)
c0020a60:	01512c23          	sw	s5,24(sp)
c0020a64:	01612a23          	sw	s6,20(sp)
c0020a68:	01712823          	sw	s7,16(sp)
c0020a6c:	01812623          	sw	s8,12(sp)
c0020a70:	01912423          	sw	s9,8(sp)
c0020a74:	01a12223          	sw	s10,4(sp)
c0020a78:	00078913          	mv	s2,a5
c0020a7c:	00070993          	mv	s3,a4
c0020a80:	00068a93          	mv	s5,a3
c0020a84:	00060b13          	mv	s6,a2
c0020a88:	00050d13          	mv	s10,a0
c0020a8c:	04058c63          	beqz	a1,c0020ae4 <_ZN4core3fmt9Formatter12pad_integral17h34be0ee62990c990E+0x9c>
c0020a90:	000d2503          	lw	a0,0(s10)
c0020a94:	00157593          	andi	a1,a0,1
c0020a98:	0a058663          	beqz	a1,c0020b44 <_ZN4core3fmt9Formatter12pad_integral17h34be0ee62990c990E+0xfc>
c0020a9c:	02b00b93          	li	s7,43
c0020aa0:	01258c33          	add	s8,a1,s2
c0020aa4:	00457593          	andi	a1,a0,4
c0020aa8:	04058863          	beqz	a1,c0020af8 <_ZN4core3fmt9Formatter12pad_integral17h34be0ee62990c990E+0xb0>
c0020aac:	0a0a8663          	beqz	s5,c0020b58 <_ZN4core3fmt9Formatter12pad_integral17h34be0ee62990c990E+0x110>
c0020ab0:	08000613          	li	a2,128
c0020ab4:	000a8693          	mv	a3,s5
c0020ab8:	00000593          	li	a1,0
c0020abc:	000b0713          	mv	a4,s6
c0020ac0:	00074783          	lbu	a5,0(a4)
c0020ac4:	0c07f793          	andi	a5,a5,192
c0020ac8:	00c7c7b3          	xor	a5,a5,a2
c0020acc:	0017b793          	seqz	a5,a5
c0020ad0:	00f585b3          	add	a1,a1,a5
c0020ad4:	00170713          	addi	a4,a4,1
c0020ad8:	fff68693          	addi	a3,a3,-1
c0020adc:	fe0692e3          	bnez	a3,c0020ac0 <_ZN4core3fmt9Formatter12pad_integral17h34be0ee62990c990E+0x78>
c0020ae0:	07c0006f          	j	c0020b5c <_ZN4core3fmt9Formatter12pad_integral17h34be0ee62990c990E+0x114>
c0020ae4:	02d00b93          	li	s7,45
c0020ae8:	000d2503          	lw	a0,0(s10)
c0020aec:	00190c13          	addi	s8,s2,1
c0020af0:	00457593          	andi	a1,a0,4
c0020af4:	fa059ce3          	bnez	a1,c0020aac <_ZN4core3fmt9Formatter12pad_integral17h34be0ee62990c990E+0x64>
c0020af8:	00000b13          	li	s6,0
c0020afc:	008d2583          	lw	a1,8(s10)
c0020b00:	00100a13          	li	s4,1
c0020b04:	07459663          	bne	a1,s4,c0020b70 <_ZN4core3fmt9Formatter12pad_integral17h34be0ee62990c990E+0x128>
c0020b08:	00cd2c83          	lw	s9,12(s10)
c0020b0c:	079c7263          	bleu	s9,s8,c0020b70 <_ZN4core3fmt9Formatter12pad_integral17h34be0ee62990c990E+0x128>
c0020b10:	00857513          	andi	a0,a0,8
c0020b14:	0c051663          	bnez	a0,c0020be0 <_ZN4core3fmt9Formatter12pad_integral17h34be0ee62990c990E+0x198>
c0020b18:	030d4503          	lbu	a0,48(s10)
c0020b1c:	00300593          	li	a1,3
c0020b20:	00b51463          	bne	a0,a1,c0020b28 <_ZN4core3fmt9Formatter12pad_integral17h34be0ee62990c990E+0xe0>
c0020b24:	00100513          	li	a0,1
c0020b28:	418c8c33          	sub	s8,s9,s8
c0020b2c:	00357593          	andi	a1,a0,3
c0020b30:	10058463          	beqz	a1,c0020c38 <_ZN4core3fmt9Formatter12pad_integral17h34be0ee62990c990E+0x1f0>
c0020b34:	00200593          	li	a1,2
c0020b38:	10b50663          	beq	a0,a1,c0020c44 <_ZN4core3fmt9Formatter12pad_integral17h34be0ee62990c990E+0x1fc>
c0020b3c:	00000c93          	li	s9,0
c0020b40:	1140006f          	j	c0020c54 <_ZN4core3fmt9Formatter12pad_integral17h34be0ee62990c990E+0x20c>
c0020b44:	00110bb7          	lui	s7,0x110
c0020b48:	01258c33          	add	s8,a1,s2
c0020b4c:	00457593          	andi	a1,a0,4
c0020b50:	f4059ee3          	bnez	a1,c0020aac <_ZN4core3fmt9Formatter12pad_integral17h34be0ee62990c990E+0x64>
c0020b54:	fa5ff06f          	j	c0020af8 <_ZN4core3fmt9Formatter12pad_integral17h34be0ee62990c990E+0xb0>
c0020b58:	00000593          	li	a1,0
c0020b5c:	015c0633          	add	a2,s8,s5
c0020b60:	40b60c33          	sub	s8,a2,a1
c0020b64:	008d2583          	lw	a1,8(s10)
c0020b68:	00100a13          	li	s4,1
c0020b6c:	f9458ee3          	beq	a1,s4,c0020b08 <_ZN4core3fmt9Formatter12pad_integral17h34be0ee62990c990E+0xc0>
c0020b70:	000d0513          	mv	a0,s10
c0020b74:	000b8593          	mv	a1,s7
c0020b78:	000b0613          	mv	a2,s6
c0020b7c:	000a8693          	mv	a3,s5
c0020b80:	00000097          	auipc	ra,0x0
c0020b84:	204080e7          	jalr	516(ra) # c0020d84 <_ZN4core3fmt9Formatter12pad_integral12write_prefix17h7a02396e060169eeE>
c0020b88:	02051063          	bnez	a0,c0020ba8 <_ZN4core3fmt9Formatter12pad_integral17h34be0ee62990c990E+0x160>
c0020b8c:	018d2503          	lw	a0,24(s10)
c0020b90:	01cd2583          	lw	a1,28(s10)
c0020b94:	00c5a683          	lw	a3,12(a1)
c0020b98:	00098593          	mv	a1,s3
c0020b9c:	00090613          	mv	a2,s2
c0020ba0:	000680e7          	jalr	a3
c0020ba4:	00050a13          	mv	s4,a0
c0020ba8:	000a0513          	mv	a0,s4
c0020bac:	00412d03          	lw	s10,4(sp)
c0020bb0:	00812c83          	lw	s9,8(sp)
c0020bb4:	00c12c03          	lw	s8,12(sp)
c0020bb8:	01012b83          	lw	s7,16(sp)
c0020bbc:	01412b03          	lw	s6,20(sp)
c0020bc0:	01812a83          	lw	s5,24(sp)
c0020bc4:	01c12a03          	lw	s4,28(sp)
c0020bc8:	02012983          	lw	s3,32(sp)
c0020bcc:	02412903          	lw	s2,36(sp)
c0020bd0:	02812483          	lw	s1,40(sp)
c0020bd4:	02c12083          	lw	ra,44(sp)
c0020bd8:	03010113          	addi	sp,sp,48
c0020bdc:	00008067          	ret
c0020be0:	03000513          	li	a0,48
c0020be4:	00ad2223          	sw	a0,4(s10)
c0020be8:	00100a13          	li	s4,1
c0020bec:	034d0823          	sb	s4,48(s10)
c0020bf0:	000d0513          	mv	a0,s10
c0020bf4:	000b8593          	mv	a1,s7
c0020bf8:	000b0613          	mv	a2,s6
c0020bfc:	000a8693          	mv	a3,s5
c0020c00:	00000097          	auipc	ra,0x0
c0020c04:	184080e7          	jalr	388(ra) # c0020d84 <_ZN4core3fmt9Formatter12pad_integral12write_prefix17h7a02396e060169eeE>
c0020c08:	fa0510e3          	bnez	a0,c0020ba8 <_ZN4core3fmt9Formatter12pad_integral17h34be0ee62990c990E+0x160>
c0020c0c:	030d4503          	lbu	a0,48(s10)
c0020c10:	00300593          	li	a1,3
c0020c14:	00b51463          	bne	a0,a1,c0020c1c <_ZN4core3fmt9Formatter12pad_integral17h34be0ee62990c990E+0x1d4>
c0020c18:	00100513          	li	a0,1
c0020c1c:	418c8ab3          	sub	s5,s9,s8
c0020c20:	00357593          	andi	a1,a0,3
c0020c24:	0c058263          	beqz	a1,c0020ce8 <_ZN4core3fmt9Formatter12pad_integral17h34be0ee62990c990E+0x2a0>
c0020c28:	00200593          	li	a1,2
c0020c2c:	0cb50463          	beq	a0,a1,c0020cf4 <_ZN4core3fmt9Formatter12pad_integral17h34be0ee62990c990E+0x2ac>
c0020c30:	00000b13          	li	s6,0
c0020c34:	0d00006f          	j	c0020d04 <_ZN4core3fmt9Formatter12pad_integral17h34be0ee62990c990E+0x2bc>
c0020c38:	000c0c93          	mv	s9,s8
c0020c3c:	00000c13          	li	s8,0
c0020c40:	0140006f          	j	c0020c54 <_ZN4core3fmt9Formatter12pad_integral17h34be0ee62990c990E+0x20c>
c0020c44:	001c5513          	srli	a0,s8,0x1
c0020c48:	001c0593          	addi	a1,s8,1
c0020c4c:	0015dc93          	srli	s9,a1,0x1
c0020c50:	00050c13          	mv	s8,a0
c0020c54:	fff00493          	li	s1,-1
c0020c58:	00100a13          	li	s4,1
c0020c5c:	00148493          	addi	s1,s1,1
c0020c60:	0384f063          	bleu	s8,s1,c0020c80 <_ZN4core3fmt9Formatter12pad_integral17h34be0ee62990c990E+0x238>
c0020c64:	004d2583          	lw	a1,4(s10)
c0020c68:	018d2503          	lw	a0,24(s10)
c0020c6c:	01cd2603          	lw	a2,28(s10)
c0020c70:	01062603          	lw	a2,16(a2)
c0020c74:	000600e7          	jalr	a2
c0020c78:	fe0502e3          	beqz	a0,c0020c5c <_ZN4core3fmt9Formatter12pad_integral17h34be0ee62990c990E+0x214>
c0020c7c:	f2dff06f          	j	c0020ba8 <_ZN4core3fmt9Formatter12pad_integral17h34be0ee62990c990E+0x160>
c0020c80:	004d2c03          	lw	s8,4(s10)
c0020c84:	000d0513          	mv	a0,s10
c0020c88:	000b8593          	mv	a1,s7
c0020c8c:	000b0613          	mv	a2,s6
c0020c90:	000a8693          	mv	a3,s5
c0020c94:	00000097          	auipc	ra,0x0
c0020c98:	0f0080e7          	jalr	240(ra) # c0020d84 <_ZN4core3fmt9Formatter12pad_integral12write_prefix17h7a02396e060169eeE>
c0020c9c:	f00516e3          	bnez	a0,c0020ba8 <_ZN4core3fmt9Formatter12pad_integral17h34be0ee62990c990E+0x160>
c0020ca0:	018d2503          	lw	a0,24(s10)
c0020ca4:	01cd2583          	lw	a1,28(s10)
c0020ca8:	00c5a683          	lw	a3,12(a1)
c0020cac:	00098593          	mv	a1,s3
c0020cb0:	00090613          	mv	a2,s2
c0020cb4:	000680e7          	jalr	a3
c0020cb8:	ee0518e3          	bnez	a0,c0020ba8 <_ZN4core3fmt9Formatter12pad_integral17h34be0ee62990c990E+0x160>
c0020cbc:	fff00493          	li	s1,-1
c0020cc0:	01cd2983          	lw	s3,28(s10)
c0020cc4:	018d2903          	lw	s2,24(s10)
c0020cc8:	00148493          	addi	s1,s1,1
c0020ccc:	0b94f863          	bleu	s9,s1,c0020d7c <_ZN4core3fmt9Formatter12pad_integral17h34be0ee62990c990E+0x334>
c0020cd0:	0109a603          	lw	a2,16(s3)
c0020cd4:	00090513          	mv	a0,s2
c0020cd8:	000c0593          	mv	a1,s8
c0020cdc:	000600e7          	jalr	a2
c0020ce0:	fe0504e3          	beqz	a0,c0020cc8 <_ZN4core3fmt9Formatter12pad_integral17h34be0ee62990c990E+0x280>
c0020ce4:	ec5ff06f          	j	c0020ba8 <_ZN4core3fmt9Formatter12pad_integral17h34be0ee62990c990E+0x160>
c0020ce8:	000a8b13          	mv	s6,s5
c0020cec:	00000a93          	li	s5,0
c0020cf0:	0140006f          	j	c0020d04 <_ZN4core3fmt9Formatter12pad_integral17h34be0ee62990c990E+0x2bc>
c0020cf4:	001ad513          	srli	a0,s5,0x1
c0020cf8:	001a8593          	addi	a1,s5,1
c0020cfc:	0015db13          	srli	s6,a1,0x1
c0020d00:	00050a93          	mv	s5,a0
c0020d04:	fff00493          	li	s1,-1
c0020d08:	00100a13          	li	s4,1
c0020d0c:	00148493          	addi	s1,s1,1
c0020d10:	0354f063          	bleu	s5,s1,c0020d30 <_ZN4core3fmt9Formatter12pad_integral17h34be0ee62990c990E+0x2e8>
c0020d14:	004d2583          	lw	a1,4(s10)
c0020d18:	018d2503          	lw	a0,24(s10)
c0020d1c:	01cd2603          	lw	a2,28(s10)
c0020d20:	01062603          	lw	a2,16(a2)
c0020d24:	000600e7          	jalr	a2
c0020d28:	fe0502e3          	beqz	a0,c0020d0c <_ZN4core3fmt9Formatter12pad_integral17h34be0ee62990c990E+0x2c4>
c0020d2c:	e7dff06f          	j	c0020ba8 <_ZN4core3fmt9Formatter12pad_integral17h34be0ee62990c990E+0x160>
c0020d30:	004d2a83          	lw	s5,4(s10)
c0020d34:	018d2503          	lw	a0,24(s10)
c0020d38:	01cd2583          	lw	a1,28(s10)
c0020d3c:	00c5a683          	lw	a3,12(a1)
c0020d40:	00098593          	mv	a1,s3
c0020d44:	00090613          	mv	a2,s2
c0020d48:	000680e7          	jalr	a3
c0020d4c:	e4051ee3          	bnez	a0,c0020ba8 <_ZN4core3fmt9Formatter12pad_integral17h34be0ee62990c990E+0x160>
c0020d50:	fff00493          	li	s1,-1
c0020d54:	01cd2983          	lw	s3,28(s10)
c0020d58:	018d2903          	lw	s2,24(s10)
c0020d5c:	00148493          	addi	s1,s1,1
c0020d60:	0164fe63          	bleu	s6,s1,c0020d7c <_ZN4core3fmt9Formatter12pad_integral17h34be0ee62990c990E+0x334>
c0020d64:	0109a603          	lw	a2,16(s3)
c0020d68:	00090513          	mv	a0,s2
c0020d6c:	000a8593          	mv	a1,s5
c0020d70:	000600e7          	jalr	a2
c0020d74:	fe0504e3          	beqz	a0,c0020d5c <_ZN4core3fmt9Formatter12pad_integral17h34be0ee62990c990E+0x314>
c0020d78:	e31ff06f          	j	c0020ba8 <_ZN4core3fmt9Formatter12pad_integral17h34be0ee62990c990E+0x160>
c0020d7c:	00000a13          	li	s4,0
c0020d80:	e29ff06f          	j	c0020ba8 <_ZN4core3fmt9Formatter12pad_integral17h34be0ee62990c990E+0x160>

c0020d84 <_ZN4core3fmt9Formatter12pad_integral12write_prefix17h7a02396e060169eeE>:
c0020d84:	ff010113          	addi	sp,sp,-16
c0020d88:	00112623          	sw	ra,12(sp)
c0020d8c:	00912423          	sw	s1,8(sp)
c0020d90:	01212223          	sw	s2,4(sp)
c0020d94:	01312023          	sw	s3,0(sp)
c0020d98:	00068913          	mv	s2,a3
c0020d9c:	00060993          	mv	s3,a2
c0020da0:	00050493          	mv	s1,a0
c0020da4:	00110537          	lui	a0,0x110
c0020da8:	02a58063          	beq	a1,a0,c0020dc8 <_ZN4core3fmt9Formatter12pad_integral12write_prefix17h7a02396e060169eeE+0x44>
c0020dac:	0184a503          	lw	a0,24(s1)
c0020db0:	01c4a603          	lw	a2,28(s1)
c0020db4:	01062603          	lw	a2,16(a2)
c0020db8:	000600e7          	jalr	a2
c0020dbc:	00050663          	beqz	a0,c0020dc8 <_ZN4core3fmt9Formatter12pad_integral12write_prefix17h7a02396e060169eeE+0x44>
c0020dc0:	00100513          	li	a0,1
c0020dc4:	0280006f          	j	c0020dec <_ZN4core3fmt9Formatter12pad_integral12write_prefix17h7a02396e060169eeE+0x68>
c0020dc8:	02098063          	beqz	s3,c0020de8 <_ZN4core3fmt9Formatter12pad_integral12write_prefix17h7a02396e060169eeE+0x64>
c0020dcc:	0184a503          	lw	a0,24(s1)
c0020dd0:	01c4a583          	lw	a1,28(s1)
c0020dd4:	00c5a683          	lw	a3,12(a1)
c0020dd8:	00098593          	mv	a1,s3
c0020ddc:	00090613          	mv	a2,s2
c0020de0:	000680e7          	jalr	a3
c0020de4:	0080006f          	j	c0020dec <_ZN4core3fmt9Formatter12pad_integral12write_prefix17h7a02396e060169eeE+0x68>
c0020de8:	00000513          	li	a0,0
c0020dec:	00012983          	lw	s3,0(sp)
c0020df0:	00412903          	lw	s2,4(sp)
c0020df4:	00812483          	lw	s1,8(sp)
c0020df8:	00c12083          	lw	ra,12(sp)
c0020dfc:	01010113          	addi	sp,sp,16
c0020e00:	00008067          	ret

c0020e04 <_ZN4core3fmt9Formatter3pad17h64c376e319d79487E>:
c0020e04:	fe010113          	addi	sp,sp,-32
c0020e08:	00112e23          	sw	ra,28(sp)
c0020e0c:	00912c23          	sw	s1,24(sp)
c0020e10:	01212a23          	sw	s2,20(sp)
c0020e14:	01312823          	sw	s3,16(sp)
c0020e18:	01412623          	sw	s4,12(sp)
c0020e1c:	01512423          	sw	s5,8(sp)
c0020e20:	01612223          	sw	s6,4(sp)
c0020e24:	01712023          	sw	s7,0(sp)
c0020e28:	00060a13          	mv	s4,a2
c0020e2c:	00058993          	mv	s3,a1
c0020e30:	00050b93          	mv	s7,a0
c0020e34:	01052503          	lw	a0,16(a0) # 110010 <.Lline_table_start0+0x10a2a5>
c0020e38:	008ba383          	lw	t2,8(s7) # 110008 <.Lline_table_start0+0x10a29d>
c0020e3c:	00100913          	li	s2,1
c0020e40:	01239863          	bne	t2,s2,c0020e50 <_ZN4core3fmt9Formatter3pad17h64c376e319d79487E+0x4c>
c0020e44:	00100593          	li	a1,1
c0020e48:	00b50663          	beq	a0,a1,c0020e54 <_ZN4core3fmt9Formatter3pad17h64c376e319d79487E+0x50>
c0020e4c:	12c0006f          	j	c0020f78 <_ZN4core3fmt9Formatter3pad17h64c376e319d79487E+0x174>
c0020e50:	25251263          	bne	a0,s2,c0021094 <_ZN4core3fmt9Formatter3pad17h64c376e319d79487E+0x290>
c0020e54:	100a0c63          	beqz	s4,c0020f6c <_ZN4core3fmt9Formatter3pad17h64c376e319d79487E+0x168>
c0020e58:	014984b3          	add	s1,s3,s4
c0020e5c:	014ba603          	lw	a2,20(s7)
c0020e60:	00198793          	addi	a5,s3,1
c0020e64:	00098503          	lb	a0,0(s3)
c0020e68:	1c054663          	bltz	a0,c0021034 <_ZN4core3fmt9Formatter3pad17h64c376e319d79487E+0x230>
c0020e6c:	20060263          	beqz	a2,c0021070 <_ZN4core3fmt9Formatter3pad17h64c376e319d79487E+0x26c>
c0020e70:	41378533          	sub	a0,a5,s3
c0020e74:	0e000313          	li	t1,224
c0020e78:	0f000813          	li	a6,240
c0020e7c:	001c08b7          	lui	a7,0x1c0
c0020e80:	001102b7          	lui	t0,0x110
c0020e84:	20f48463          	beq	s1,a5,c002108c <_ZN4core3fmt9Formatter3pad17h64c376e319d79487E+0x288>
c0020e88:	00050713          	mv	a4,a0
c0020e8c:	00078693          	mv	a3,a5
c0020e90:	00178793          	addi	a5,a5,1
c0020e94:	00068503          	lb	a0,0(a3)
c0020e98:	00054c63          	bltz	a0,c0020eb0 <_ZN4core3fmt9Formatter3pad17h64c376e319d79487E+0xac>
c0020e9c:	fff60613          	addi	a2,a2,-1
c0020ea0:	40d70533          	sub	a0,a4,a3
c0020ea4:	00f50533          	add	a0,a0,a5
c0020ea8:	fc061ee3          	bnez	a2,c0020e84 <_ZN4core3fmt9Formatter3pad17h64c376e319d79487E+0x80>
c0020eac:	0980006f          	j	c0020f44 <_ZN4core3fmt9Formatter3pad17h64c376e319d79487E+0x140>
c0020eb0:	0ff57513          	andi	a0,a0,255
c0020eb4:	04978863          	beq	a5,s1,c0020f04 <_ZN4core3fmt9Formatter3pad17h64c376e319d79487E+0x100>
c0020eb8:	00268793          	addi	a5,a3,2
c0020ebc:	0016c583          	lbu	a1,1(a3)
c0020ec0:	03f5fe13          	andi	t3,a1,63
c0020ec4:	00078593          	mv	a1,a5
c0020ec8:	fc656ae3          	bltu	a0,t1,c0020e9c <_ZN4core3fmt9Formatter3pad17h64c376e319d79487E+0x98>
c0020ecc:	04958463          	beq	a1,s1,c0020f14 <_ZN4core3fmt9Formatter3pad17h64c376e319d79487E+0x110>
c0020ed0:	00158793          	addi	a5,a1,1
c0020ed4:	0005c583          	lbu	a1,0(a1)
c0020ed8:	03f5fe93          	andi	t4,a1,63
c0020edc:	00078593          	mv	a1,a5
c0020ee0:	fb056ee3          	bltu	a0,a6,c0020e9c <_ZN4core3fmt9Formatter3pad17h64c376e319d79487E+0x98>
c0020ee4:	01f57f13          	andi	t5,a0,31
c0020ee8:	006e1513          	slli	a0,t3,0x6
c0020eec:	00aeee33          	or	t3,t4,a0
c0020ef0:	02958a63          	beq	a1,s1,c0020f24 <_ZN4core3fmt9Formatter3pad17h64c376e319d79487E+0x120>
c0020ef4:	00158793          	addi	a5,a1,1
c0020ef8:	0005c503          	lbu	a0,0(a1)
c0020efc:	03f57e93          	andi	t4,a0,63
c0020f00:	0280006f          	j	c0020f28 <_ZN4core3fmt9Formatter3pad17h64c376e319d79487E+0x124>
c0020f04:	00048593          	mv	a1,s1
c0020f08:	00000e13          	li	t3,0
c0020f0c:	fc6570e3          	bleu	t1,a0,c0020ecc <_ZN4core3fmt9Formatter3pad17h64c376e319d79487E+0xc8>
c0020f10:	f8dff06f          	j	c0020e9c <_ZN4core3fmt9Formatter3pad17h64c376e319d79487E+0x98>
c0020f14:	00048593          	mv	a1,s1
c0020f18:	00000e93          	li	t4,0
c0020f1c:	fd0574e3          	bleu	a6,a0,c0020ee4 <_ZN4core3fmt9Formatter3pad17h64c376e319d79487E+0xe0>
c0020f20:	f7dff06f          	j	c0020e9c <_ZN4core3fmt9Formatter3pad17h64c376e319d79487E+0x98>
c0020f24:	00000e93          	li	t4,0
c0020f28:	012f1513          	slli	a0,t5,0x12
c0020f2c:	01157533          	and	a0,a0,a7
c0020f30:	006e1593          	slli	a1,t3,0x6
c0020f34:	00a5e533          	or	a0,a1,a0
c0020f38:	01d56533          	or	a0,a0,t4
c0020f3c:	f65510e3          	bne	a0,t0,c0020e9c <_ZN4core3fmt9Formatter3pad17h64c376e319d79487E+0x98>
c0020f40:	14c0006f          	j	c002108c <_ZN4core3fmt9Formatter3pad17h64c376e319d79487E+0x288>
c0020f44:	12070a63          	beqz	a4,c0021078 <_ZN4core3fmt9Formatter3pad17h64c376e319d79487E+0x274>
c0020f48:	13470863          	beq	a4,s4,c0021078 <_ZN4core3fmt9Formatter3pad17h64c376e319d79487E+0x274>
c0020f4c:	01477a63          	bleu	s4,a4,c0020f60 <_ZN4core3fmt9Formatter3pad17h64c376e319d79487E+0x15c>
c0020f50:	00e98533          	add	a0,s3,a4
c0020f54:	00050503          	lb	a0,0(a0)
c0020f58:	fc000593          	li	a1,-64
c0020f5c:	10b55e63          	ble	a1,a0,c0021078 <_ZN4core3fmt9Formatter3pad17h64c376e319d79487E+0x274>
c0020f60:	00000513          	li	a0,0
c0020f64:	10051e63          	bnez	a0,c0021080 <_ZN4core3fmt9Formatter3pad17h64c376e319d79487E+0x27c>
c0020f68:	11c0006f          	j	c0021084 <_ZN4core3fmt9Formatter3pad17h64c376e319d79487E+0x280>
c0020f6c:	00000a13          	li	s4,0
c0020f70:	00100513          	li	a0,1
c0020f74:	12a39063          	bne	t2,a0,c0021094 <_ZN4core3fmt9Formatter3pad17h64c376e319d79487E+0x290>
c0020f78:	0a0a0463          	beqz	s4,c0021020 <_ZN4core3fmt9Formatter3pad17h64c376e319d79487E+0x21c>
c0020f7c:	08000593          	li	a1,128
c0020f80:	000a0613          	mv	a2,s4
c0020f84:	00000513          	li	a0,0
c0020f88:	00098693          	mv	a3,s3
c0020f8c:	0006c703          	lbu	a4,0(a3)
c0020f90:	0c077713          	andi	a4,a4,192
c0020f94:	00b74733          	xor	a4,a4,a1
c0020f98:	00173713          	seqz	a4,a4
c0020f9c:	00e50533          	add	a0,a0,a4
c0020fa0:	00168693          	addi	a3,a3,1
c0020fa4:	fff60613          	addi	a2,a2,-1
c0020fa8:	fe0612e3          	bnez	a2,c0020f8c <_ZN4core3fmt9Formatter3pad17h64c376e319d79487E+0x188>
c0020fac:	40aa05b3          	sub	a1,s4,a0
c0020fb0:	00cba503          	lw	a0,12(s7)
c0020fb4:	0ea5f063          	bleu	a0,a1,c0021094 <_ZN4core3fmt9Formatter3pad17h64c376e319d79487E+0x290>
c0020fb8:	120a0263          	beqz	s4,c00210dc <_ZN4core3fmt9Formatter3pad17h64c376e319d79487E+0x2d8>
c0020fbc:	08000613          	li	a2,128
c0020fc0:	000a0693          	mv	a3,s4
c0020fc4:	00000593          	li	a1,0
c0020fc8:	00098713          	mv	a4,s3
c0020fcc:	00074783          	lbu	a5,0(a4)
c0020fd0:	0c07f793          	andi	a5,a5,192
c0020fd4:	00c7c7b3          	xor	a5,a5,a2
c0020fd8:	0017b793          	seqz	a5,a5
c0020fdc:	00f585b3          	add	a1,a1,a5
c0020fe0:	00170713          	addi	a4,a4,1
c0020fe4:	fff68693          	addi	a3,a3,-1
c0020fe8:	fe0692e3          	bnez	a3,c0020fcc <_ZN4core3fmt9Formatter3pad17h64c376e319d79487E+0x1c8>
c0020fec:	030bc683          	lbu	a3,48(s7)
c0020ff0:	00300713          	li	a4,3
c0020ff4:	00000613          	li	a2,0
c0020ff8:	00e68463          	beq	a3,a4,c0021000 <_ZN4core3fmt9Formatter3pad17h64c376e319d79487E+0x1fc>
c0020ffc:	00068613          	mv	a2,a3
c0021000:	414585b3          	sub	a1,a1,s4
c0021004:	00a58ab3          	add	s5,a1,a0
c0021008:	00367513          	andi	a0,a2,3
c002100c:	0e050463          	beqz	a0,c00210f4 <_ZN4core3fmt9Formatter3pad17h64c376e319d79487E+0x2f0>
c0021010:	00200513          	li	a0,2
c0021014:	0ea60663          	beq	a2,a0,c0021100 <_ZN4core3fmt9Formatter3pad17h64c376e319d79487E+0x2fc>
c0021018:	00000b13          	li	s6,0
c002101c:	0f40006f          	j	c0021110 <_ZN4core3fmt9Formatter3pad17h64c376e319d79487E+0x30c>
c0021020:	00000513          	li	a0,0
c0021024:	40aa05b3          	sub	a1,s4,a0
c0021028:	00cba503          	lw	a0,12(s7)
c002102c:	f8a5e6e3          	bltu	a1,a0,c0020fb8 <_ZN4core3fmt9Formatter3pad17h64c376e319d79487E+0x1b4>
c0021030:	0640006f          	j	c0021094 <_ZN4core3fmt9Formatter3pad17h64c376e319d79487E+0x290>
c0021034:	0ff57693          	andi	a3,a0,255
c0021038:	00100513          	li	a0,1
c002103c:	14aa1463          	bne	s4,a0,c0021184 <_ZN4core3fmt9Formatter3pad17h64c376e319d79487E+0x380>
c0021040:	00048593          	mv	a1,s1
c0021044:	00000513          	li	a0,0
c0021048:	0e000713          	li	a4,224
c002104c:	e2e6e0e3          	bltu	a3,a4,c0020e6c <_ZN4core3fmt9Formatter3pad17h64c376e319d79487E+0x68>
c0021050:	14958c63          	beq	a1,s1,c00211a8 <_ZN4core3fmt9Formatter3pad17h64c376e319d79487E+0x3a4>
c0021054:	00158793          	addi	a5,a1,1
c0021058:	0005c583          	lbu	a1,0(a1)
c002105c:	03f5f813          	andi	a6,a1,63
c0021060:	00078713          	mv	a4,a5
c0021064:	0f000593          	li	a1,240
c0021068:	14b6f863          	bleu	a1,a3,c00211b8 <_ZN4core3fmt9Formatter3pad17h64c376e319d79487E+0x3b4>
c002106c:	e01ff06f          	j	c0020e6c <_ZN4core3fmt9Formatter3pad17h64c376e319d79487E+0x68>
c0021070:	00000713          	li	a4,0
c0021074:	ec071ae3          	bnez	a4,c0020f48 <_ZN4core3fmt9Formatter3pad17h64c376e319d79487E+0x144>
c0021078:	00098513          	mv	a0,s3
c002107c:	00050463          	beqz	a0,c0021084 <_ZN4core3fmt9Formatter3pad17h64c376e319d79487E+0x280>
c0021080:	00070a13          	mv	s4,a4
c0021084:	00050463          	beqz	a0,c002108c <_ZN4core3fmt9Formatter3pad17h64c376e319d79487E+0x288>
c0021088:	00050993          	mv	s3,a0
c002108c:	00100513          	li	a0,1
c0021090:	eea384e3          	beq	t2,a0,c0020f78 <_ZN4core3fmt9Formatter3pad17h64c376e319d79487E+0x174>
c0021094:	018ba503          	lw	a0,24(s7)
c0021098:	01cba583          	lw	a1,28(s7)
c002109c:	00c5a683          	lw	a3,12(a1)
c00210a0:	00098593          	mv	a1,s3
c00210a4:	000a0613          	mv	a2,s4
c00210a8:	000680e7          	jalr	a3
c00210ac:	00050913          	mv	s2,a0
c00210b0:	00090513          	mv	a0,s2
c00210b4:	00012b83          	lw	s7,0(sp)
c00210b8:	00412b03          	lw	s6,4(sp)
c00210bc:	00812a83          	lw	s5,8(sp)
c00210c0:	00c12a03          	lw	s4,12(sp)
c00210c4:	01012983          	lw	s3,16(sp)
c00210c8:	01412903          	lw	s2,20(sp)
c00210cc:	01812483          	lw	s1,24(sp)
c00210d0:	01c12083          	lw	ra,28(sp)
c00210d4:	02010113          	addi	sp,sp,32
c00210d8:	00008067          	ret
c00210dc:	00000593          	li	a1,0
c00210e0:	030bc683          	lbu	a3,48(s7)
c00210e4:	00300713          	li	a4,3
c00210e8:	00000613          	li	a2,0
c00210ec:	f0e698e3          	bne	a3,a4,c0020ffc <_ZN4core3fmt9Formatter3pad17h64c376e319d79487E+0x1f8>
c00210f0:	f11ff06f          	j	c0021000 <_ZN4core3fmt9Formatter3pad17h64c376e319d79487E+0x1fc>
c00210f4:	000a8b13          	mv	s6,s5
c00210f8:	00000a93          	li	s5,0
c00210fc:	0140006f          	j	c0021110 <_ZN4core3fmt9Formatter3pad17h64c376e319d79487E+0x30c>
c0021100:	001ad513          	srli	a0,s5,0x1
c0021104:	001a8593          	addi	a1,s5,1
c0021108:	0015db13          	srli	s6,a1,0x1
c002110c:	00050a93          	mv	s5,a0
c0021110:	fff00493          	li	s1,-1
c0021114:	00148493          	addi	s1,s1,1
c0021118:	0354f063          	bleu	s5,s1,c0021138 <_ZN4core3fmt9Formatter3pad17h64c376e319d79487E+0x334>
c002111c:	004ba583          	lw	a1,4(s7)
c0021120:	018ba503          	lw	a0,24(s7)
c0021124:	01cba603          	lw	a2,28(s7)
c0021128:	01062603          	lw	a2,16(a2)
c002112c:	000600e7          	jalr	a2
c0021130:	fe0502e3          	beqz	a0,c0021114 <_ZN4core3fmt9Formatter3pad17h64c376e319d79487E+0x310>
c0021134:	f7dff06f          	j	c00210b0 <_ZN4core3fmt9Formatter3pad17h64c376e319d79487E+0x2ac>
c0021138:	004baa83          	lw	s5,4(s7)
c002113c:	018ba503          	lw	a0,24(s7)
c0021140:	01cba583          	lw	a1,28(s7)
c0021144:	00c5a683          	lw	a3,12(a1)
c0021148:	00098593          	mv	a1,s3
c002114c:	000a0613          	mv	a2,s4
c0021150:	000680e7          	jalr	a3
c0021154:	f4051ee3          	bnez	a0,c00210b0 <_ZN4core3fmt9Formatter3pad17h64c376e319d79487E+0x2ac>
c0021158:	fff00493          	li	s1,-1
c002115c:	01cbaa03          	lw	s4,28(s7)
c0021160:	018ba983          	lw	s3,24(s7)
c0021164:	00148493          	addi	s1,s1,1
c0021168:	0364fc63          	bleu	s6,s1,c00211a0 <_ZN4core3fmt9Formatter3pad17h64c376e319d79487E+0x39c>
c002116c:	010a2603          	lw	a2,16(s4)
c0021170:	00098513          	mv	a0,s3
c0021174:	000a8593          	mv	a1,s5
c0021178:	000600e7          	jalr	a2
c002117c:	fe0504e3          	beqz	a0,c0021164 <_ZN4core3fmt9Formatter3pad17h64c376e319d79487E+0x360>
c0021180:	f31ff06f          	j	c00210b0 <_ZN4core3fmt9Formatter3pad17h64c376e319d79487E+0x2ac>
c0021184:	00298793          	addi	a5,s3,2
c0021188:	0019c503          	lbu	a0,1(s3)
c002118c:	03f57513          	andi	a0,a0,63
c0021190:	00078593          	mv	a1,a5
c0021194:	0e000713          	li	a4,224
c0021198:	eae6fce3          	bleu	a4,a3,c0021050 <_ZN4core3fmt9Formatter3pad17h64c376e319d79487E+0x24c>
c002119c:	cd1ff06f          	j	c0020e6c <_ZN4core3fmt9Formatter3pad17h64c376e319d79487E+0x68>
c00211a0:	00000913          	li	s2,0
c00211a4:	f0dff06f          	j	c00210b0 <_ZN4core3fmt9Formatter3pad17h64c376e319d79487E+0x2ac>
c00211a8:	00048713          	mv	a4,s1
c00211ac:	00000813          	li	a6,0
c00211b0:	0f000593          	li	a1,240
c00211b4:	cab6ece3          	bltu	a3,a1,c0020e6c <_ZN4core3fmt9Formatter3pad17h64c376e319d79487E+0x68>
c00211b8:	01f6f693          	andi	a3,a3,31
c00211bc:	00651513          	slli	a0,a0,0x6
c00211c0:	00a86533          	or	a0,a6,a0
c00211c4:	00970a63          	beq	a4,s1,c00211d8 <_ZN4core3fmt9Formatter3pad17h64c376e319d79487E+0x3d4>
c00211c8:	00170793          	addi	a5,a4,1
c00211cc:	00074583          	lbu	a1,0(a4)
c00211d0:	03f5f593          	andi	a1,a1,63
c00211d4:	0080006f          	j	c00211dc <_ZN4core3fmt9Formatter3pad17h64c376e319d79487E+0x3d8>
c00211d8:	00000593          	li	a1,0
c00211dc:	01269693          	slli	a3,a3,0x12
c00211e0:	001c0737          	lui	a4,0x1c0
c00211e4:	00e6f6b3          	and	a3,a3,a4
c00211e8:	00651513          	slli	a0,a0,0x6
c00211ec:	00d56533          	or	a0,a0,a3
c00211f0:	00b56533          	or	a0,a0,a1
c00211f4:	001105b7          	lui	a1,0x110
c00211f8:	e8b50ae3          	beq	a0,a1,c002108c <_ZN4core3fmt9Formatter3pad17h64c376e319d79487E+0x288>
c00211fc:	c71ff06f          	j	c0020e6c <_ZN4core3fmt9Formatter3pad17h64c376e319d79487E+0x68>

c0021200 <_ZN42_$LT$str$u20$as$u20$core..fmt..Display$GT$3fmt17h959f537f6061589aE>:
c0021200:	00058693          	mv	a3,a1
c0021204:	00050593          	mv	a1,a0
c0021208:	00060513          	mv	a0,a2
c002120c:	00068613          	mv	a2,a3
c0021210:	00000317          	auipc	t1,0x0
c0021214:	bf430067          	jr	-1036(t1) # c0020e04 <_ZN4core3fmt9Formatter3pad17h64c376e319d79487E>

c0021218 <_ZN53_$LT$core..fmt..Error$u20$as$u20$core..fmt..Debug$GT$3fmt17h522f88c183b1d856E>:
c0021218:	0185a503          	lw	a0,24(a1) # 110018 <.Lline_table_start0+0x10a2ad>
c002121c:	01c5a583          	lw	a1,28(a1)
c0021220:	00c5a783          	lw	a5,12(a1)
c0021224:	c00245b7          	lui	a1,0xc0024
c0021228:	2ac58593          	addi	a1,a1,684 # c00242ac <bootstacktop+0xfff7f2ac>
c002122c:	00500613          	li	a2,5
c0021230:	00078067          	jr	a5

c0021234 <_ZN4core3fmt3num53_$LT$impl$u20$core..fmt..UpperHex$u20$for$u20$i32$GT$3fmt17hcce9f77cfef447c0E>:
c0021234:	f7010113          	addi	sp,sp,-144
c0021238:	08112623          	sw	ra,140(sp)
c002123c:	00058813          	mv	a6,a1
c0021240:	00052503          	lw	a0,0(a0)
c0021244:	00a00693          	li	a3,10
c0021248:	00c10613          	addi	a2,sp,12
c002124c:	00000593          	li	a1,0
c0021250:	00f57713          	andi	a4,a0,15
c0021254:	00d76663          	bltu	a4,a3,c0021260 <_ZN4core3fmt3num53_$LT$impl$u20$core..fmt..UpperHex$u20$for$u20$i32$GT$3fmt17hcce9f77cfef447c0E+0x2c>
c0021258:	03770713          	addi	a4,a4,55 # 1c0037 <.Lline_table_start0+0x1ba2cc>
c002125c:	0080006f          	j	c0021264 <_ZN4core3fmt3num53_$LT$impl$u20$core..fmt..UpperHex$u20$for$u20$i32$GT$3fmt17hcce9f77cfef447c0E+0x30>
c0021260:	03076713          	ori	a4,a4,48
c0021264:	00b607b3          	add	a5,a2,a1
c0021268:	06e78fa3          	sb	a4,127(a5)
c002126c:	fff58593          	addi	a1,a1,-1
c0021270:	00455513          	srli	a0,a0,0x4
c0021274:	fc051ee3          	bnez	a0,c0021250 <_ZN4core3fmt3num53_$LT$impl$u20$core..fmt..UpperHex$u20$for$u20$i32$GT$3fmt17hcce9f77cfef447c0E+0x1c>
c0021278:	08058513          	addi	a0,a1,128
c002127c:	08100693          	li	a3,129
c0021280:	02d57c63          	bleu	a3,a0,c00212b8 <_ZN4core3fmt3num53_$LT$impl$u20$core..fmt..UpperHex$u20$for$u20$i32$GT$3fmt17hcce9f77cfef447c0E+0x84>
c0021284:	00b60533          	add	a0,a2,a1
c0021288:	40b007b3          	neg	a5,a1
c002128c:	08050713          	addi	a4,a0,128
c0021290:	c0024537          	lui	a0,0xc0024
c0021294:	2b150613          	addi	a2,a0,689 # c00242b1 <bootstacktop+0xfff7f2b1>
c0021298:	00100593          	li	a1,1
c002129c:	00200693          	li	a3,2
c00212a0:	00080513          	mv	a0,a6
c00212a4:	fffff097          	auipc	ra,0xfffff
c00212a8:	7a4080e7          	jalr	1956(ra) # c0020a48 <_ZN4core3fmt9Formatter12pad_integral17h34be0ee62990c990E>
c00212ac:	08c12083          	lw	ra,140(sp)
c00212b0:	09010113          	addi	sp,sp,144
c00212b4:	00008067          	ret
c00212b8:	08000593          	li	a1,128
c00212bc:	00000097          	auipc	ra,0x0
c00212c0:	010080e7          	jalr	16(ra) # c00212cc <_ZN4core5slice22slice_index_order_fail17h5896d68f71bfb487E>
c00212c4:	00000097          	auipc	ra,0x0
c00212c8:	614080e7          	jalr	1556(ra) # c00218d8 <abort>

c00212cc <_ZN4core5slice22slice_index_order_fail17h5896d68f71bfb487E>:
c00212cc:	fc010113          	addi	sp,sp,-64
c00212d0:	02112e23          	sw	ra,60(sp)
c00212d4:	00b12623          	sw	a1,12(sp)
c00212d8:	00a12423          	sw	a0,8(sp)
c00212dc:	00c10513          	addi	a0,sp,12
c00212e0:	02a12823          	sw	a0,48(sp)
c00212e4:	c0021537          	lui	a0,0xc0021
c00212e8:	33c50513          	addi	a0,a0,828 # c002133c <bootstacktop+0xfff7c33c>
c00212ec:	02a12a23          	sw	a0,52(sp)
c00212f0:	02a12623          	sw	a0,44(sp)
c00212f4:	00810513          	addi	a0,sp,8
c00212f8:	02a12423          	sw	a0,40(sp)
c00212fc:	02810513          	addi	a0,sp,40
c0021300:	02a12023          	sw	a0,32(sp)
c0021304:	00012c23          	sw	zero,24(sp)
c0021308:	00200513          	li	a0,2
c002130c:	02a12223          	sw	a0,36(sp)
c0021310:	00a12a23          	sw	a0,20(sp)
c0021314:	c0024537          	lui	a0,0xc0024
c0021318:	41050513          	addi	a0,a0,1040 # c0024410 <bootstacktop+0xfff7f410>
c002131c:	00a12823          	sw	a0,16(sp)
c0021320:	c0024537          	lui	a0,0xc0024
c0021324:	42050593          	addi	a1,a0,1056 # c0024420 <bootstacktop+0xfff7f420>
c0021328:	01010513          	addi	a0,sp,16
c002132c:	00000097          	auipc	ra,0x0
c0021330:	310080e7          	jalr	784(ra) # c002163c <_ZN4core9panicking9panic_fmt17h6c27fc8975b1212eE>
c0021334:	00000097          	auipc	ra,0x0
c0021338:	5a4080e7          	jalr	1444(ra) # c00218d8 <abort>

c002133c <_ZN4core3fmt3num3imp52_$LT$impl$u20$core..fmt..Display$u20$for$u20$u32$GT$3fmt17hdc6d0ba1fe049ed3E>:
c002133c:	fa010113          	addi	sp,sp,-96
c0021340:	04112e23          	sw	ra,92(sp)
c0021344:	04912c23          	sw	s1,88(sp)
c0021348:	05212a23          	sw	s2,84(sp)
c002134c:	05312823          	sw	s3,80(sp)
c0021350:	05412623          	sw	s4,76(sp)
c0021354:	05512423          	sw	s5,72(sp)
c0021358:	05612223          	sw	s6,68(sp)
c002135c:	05712023          	sw	s7,64(sp)
c0021360:	03812e23          	sw	s8,60(sp)
c0021364:	03912c23          	sw	s9,56(sp)
c0021368:	03a12a23          	sw	s10,52(sp)
c002136c:	03b12823          	sw	s11,48(sp)
c0021370:	00058913          	mv	s2,a1
c0021374:	00052a83          	lw	s5,0(a0)
c0021378:	c0024537          	lui	a0,0xc0024
c002137c:	37c52b83          	lw	s7,892(a0) # c002437c <bootstacktop+0xfff7f37c>
c0021380:	004ad513          	srli	a0,s5,0x4
c0021384:	27100593          	li	a1,625
c0021388:	0eb56263          	bltu	a0,a1,c002146c <_ZN4core3fmt3num3imp52_$LT$impl$u20$core..fmt..Display$u20$for$u20$u32$GT$3fmt17hdc6d0ba1fe049ed3E+0x130>
c002138c:	00002537          	lui	a0,0x2
c0021390:	71050993          	addi	s3,a0,1808 # 2710 <.Lline_table_start0+0x1bc>
c0021394:	06400a13          	li	s4,100
c0021398:	00910c13          	addi	s8,sp,9
c002139c:	05f5e537          	lui	a0,0x5f5e
c00213a0:	0ff50d13          	addi	s10,a0,255 # 5f5e0ff <.Lline_table_start0+0x5f58394>
c00213a4:	00000d93          	li	s11,0
c00213a8:	000a8b13          	mv	s6,s5
c00213ac:	000a8513          	mv	a0,s5
c00213b0:	00098593          	mv	a1,s3
c00213b4:	00002097          	auipc	ra,0x2
c00213b8:	a38080e7          	jalr	-1480(ra) # c0022dec <__udivsi3>
c00213bc:	00050a93          	mv	s5,a0
c00213c0:	00098593          	mv	a1,s3
c00213c4:	00000097          	auipc	ra,0x0
c00213c8:	30c080e7          	jalr	780(ra) # c00216d0 <__mulsi3>
c00213cc:	40ab0cb3          	sub	s9,s6,a0
c00213d0:	000c8513          	mv	a0,s9
c00213d4:	000a0593          	mv	a1,s4
c00213d8:	00002097          	auipc	ra,0x2
c00213dc:	a14080e7          	jalr	-1516(ra) # c0022dec <__udivsi3>
c00213e0:	01bc04b3          	add	s1,s8,s11
c00213e4:	00151593          	slli	a1,a0,0x1
c00213e8:	00bb85b3          	add	a1,s7,a1
c00213ec:	0005c603          	lbu	a2,0(a1)
c00213f0:	00158583          	lb	a1,1(a1)
c00213f4:	02b48223          	sb	a1,36(s1)
c00213f8:	02c481a3          	sb	a2,35(s1)
c00213fc:	000a0593          	mv	a1,s4
c0021400:	00000097          	auipc	ra,0x0
c0021404:	2d0080e7          	jalr	720(ra) # c00216d0 <__mulsi3>
c0021408:	40ac8533          	sub	a0,s9,a0
c002140c:	00151513          	slli	a0,a0,0x1
c0021410:	00ab8533          	add	a0,s7,a0
c0021414:	00054583          	lbu	a1,0(a0)
c0021418:	00150503          	lb	a0,1(a0)
c002141c:	02a48323          	sb	a0,38(s1)
c0021420:	02b482a3          	sb	a1,37(s1)
c0021424:	ffcd8d93          	addi	s11,s11,-4
c0021428:	f96d60e3          	bltu	s10,s6,c00213a8 <_ZN4core3fmt3num3imp52_$LT$impl$u20$core..fmt..Display$u20$for$u20$u32$GT$3fmt17hdc6d0ba1fe049ed3E+0x6c>
c002142c:	027d8493          	addi	s1,s11,39
c0021430:	06300513          	li	a0,99
c0021434:	05554263          	blt	a0,s5,c0021478 <_ZN4core3fmt3num3imp52_$LT$impl$u20$core..fmt..Display$u20$for$u20$u32$GT$3fmt17hdc6d0ba1fe049ed3E+0x13c>
c0021438:	000a8993          	mv	s3,s5
c002143c:	00900513          	li	a0,9
c0021440:	09355e63          	ble	s3,a0,c00214dc <_ZN4core3fmt3num3imp52_$LT$impl$u20$core..fmt..Display$u20$for$u20$u32$GT$3fmt17hdc6d0ba1fe049ed3E+0x1a0>
c0021444:	00199513          	slli	a0,s3,0x1
c0021448:	00ab85b3          	add	a1,s7,a0
c002144c:	ffe48513          	addi	a0,s1,-2
c0021450:	00910613          	addi	a2,sp,9
c0021454:	00a60633          	add	a2,a2,a0
c0021458:	0005c683          	lbu	a3,0(a1)
c002145c:	00158583          	lb	a1,1(a1)
c0021460:	00b600a3          	sb	a1,1(a2)
c0021464:	00d60023          	sb	a3,0(a2)
c0021468:	0880006f          	j	c00214f0 <_ZN4core3fmt3num3imp52_$LT$impl$u20$core..fmt..Display$u20$for$u20$u32$GT$3fmt17hdc6d0ba1fe049ed3E+0x1b4>
c002146c:	02700493          	li	s1,39
c0021470:	06300513          	li	a0,99
c0021474:	fd5552e3          	ble	s5,a0,c0021438 <_ZN4core3fmt3num3imp52_$LT$impl$u20$core..fmt..Display$u20$for$u20$u32$GT$3fmt17hdc6d0ba1fe049ed3E+0xfc>
c0021478:	00010b37          	lui	s6,0x10
c002147c:	fffb0513          	addi	a0,s6,-1 # ffff <.Lline_table_start0+0xa294>
c0021480:	00aaf533          	and	a0,s5,a0
c0021484:	06400a13          	li	s4,100
c0021488:	000a0593          	mv	a1,s4
c002148c:	00002097          	auipc	ra,0x2
c0021490:	960080e7          	jalr	-1696(ra) # c0022dec <__udivsi3>
c0021494:	00050993          	mv	s3,a0
c0021498:	000a0593          	mv	a1,s4
c002149c:	00000097          	auipc	ra,0x0
c00214a0:	234080e7          	jalr	564(ra) # c00216d0 <__mulsi3>
c00214a4:	40aa8533          	sub	a0,s5,a0
c00214a8:	00151513          	slli	a0,a0,0x1
c00214ac:	ffeb0593          	addi	a1,s6,-2
c00214b0:	00b57533          	and	a0,a0,a1
c00214b4:	00ab8533          	add	a0,s7,a0
c00214b8:	ffe48493          	addi	s1,s1,-2
c00214bc:	00910593          	addi	a1,sp,9
c00214c0:	009585b3          	add	a1,a1,s1
c00214c4:	00054603          	lbu	a2,0(a0)
c00214c8:	00150503          	lb	a0,1(a0)
c00214cc:	00a580a3          	sb	a0,1(a1)
c00214d0:	00c58023          	sb	a2,0(a1)
c00214d4:	00900513          	li	a0,9
c00214d8:	f73546e3          	blt	a0,s3,c0021444 <_ZN4core3fmt3num3imp52_$LT$impl$u20$core..fmt..Display$u20$for$u20$u32$GT$3fmt17hdc6d0ba1fe049ed3E+0x108>
c00214dc:	fff48513          	addi	a0,s1,-1
c00214e0:	00910593          	addi	a1,sp,9
c00214e4:	00a585b3          	add	a1,a1,a0
c00214e8:	03098613          	addi	a2,s3,48
c00214ec:	00c58023          	sb	a2,0(a1)
c00214f0:	00910593          	addi	a1,sp,9
c00214f4:	00a58733          	add	a4,a1,a0
c00214f8:	02700593          	li	a1,39
c00214fc:	40a587b3          	sub	a5,a1,a0
c0021500:	c0024537          	lui	a0,0xc0024
c0021504:	38050613          	addi	a2,a0,896 # c0024380 <bootstacktop+0xfff7f380>
c0021508:	00100593          	li	a1,1
c002150c:	00090513          	mv	a0,s2
c0021510:	00000693          	li	a3,0
c0021514:	fffff097          	auipc	ra,0xfffff
c0021518:	534080e7          	jalr	1332(ra) # c0020a48 <_ZN4core3fmt9Formatter12pad_integral17h34be0ee62990c990E>
c002151c:	03012d83          	lw	s11,48(sp)
c0021520:	03412d03          	lw	s10,52(sp)
c0021524:	03812c83          	lw	s9,56(sp)
c0021528:	03c12c03          	lw	s8,60(sp)
c002152c:	04012b83          	lw	s7,64(sp)
c0021530:	04412b03          	lw	s6,68(sp)
c0021534:	04812a83          	lw	s5,72(sp)
c0021538:	04c12a03          	lw	s4,76(sp)
c002153c:	05012983          	lw	s3,80(sp)
c0021540:	05412903          	lw	s2,84(sp)
c0021544:	05812483          	lw	s1,88(sp)
c0021548:	05c12083          	lw	ra,92(sp)
c002154c:	06010113          	addi	sp,sp,96
c0021550:	00008067          	ret

c0021554 <_ZN4core3ptr18real_drop_in_place17hc53e60ce86fbc987E>:
c0021554:	00008067          	ret

c0021558 <_ZN4core9panicking5panic17habb8bf93ce0fcf0dE>:
c0021558:	fc010113          	addi	sp,sp,-64
c002155c:	02112e23          	sw	ra,60(sp)
c0021560:	00852583          	lw	a1,8(a0)
c0021564:	00c52603          	lw	a2,12(a0)
c0021568:	01052683          	lw	a3,16(a0)
c002156c:	01452703          	lw	a4,20(a0)
c0021570:	00052783          	lw	a5,0(a0)
c0021574:	00452503          	lw	a0,4(a0)
c0021578:	02a12223          	sw	a0,36(sp)
c002157c:	02f12023          	sw	a5,32(sp)
c0021580:	c0024537          	lui	a0,0xc0024
c0021584:	43050513          	addi	a0,a0,1072 # c0024430 <bootstacktop+0xfff7f430>
c0021588:	00a12c23          	sw	a0,24(sp)
c002158c:	00012e23          	sw	zero,28(sp)
c0021590:	00012823          	sw	zero,16(sp)
c0021594:	00100513          	li	a0,1
c0021598:	00a12623          	sw	a0,12(sp)
c002159c:	02010513          	addi	a0,sp,32
c00215a0:	00a12423          	sw	a0,8(sp)
c00215a4:	02e12a23          	sw	a4,52(sp)
c00215a8:	02d12823          	sw	a3,48(sp)
c00215ac:	02c12623          	sw	a2,44(sp)
c00215b0:	02b12423          	sw	a1,40(sp)
c00215b4:	00810513          	addi	a0,sp,8
c00215b8:	02810593          	addi	a1,sp,40
c00215bc:	00000097          	auipc	ra,0x0
c00215c0:	080080e7          	jalr	128(ra) # c002163c <_ZN4core9panicking9panic_fmt17h6c27fc8975b1212eE>
c00215c4:	00000097          	auipc	ra,0x0
c00215c8:	314080e7          	jalr	788(ra) # c00218d8 <abort>

c00215cc <_ZN4core9panicking18panic_bounds_check17h0effffac4c023f9aE>:
c00215cc:	fc010113          	addi	sp,sp,-64
c00215d0:	02112e23          	sw	ra,60(sp)
c00215d4:	00050693          	mv	a3,a0
c00215d8:	00c12623          	sw	a2,12(sp)
c00215dc:	00b12423          	sw	a1,8(sp)
c00215e0:	00810513          	addi	a0,sp,8
c00215e4:	02a12823          	sw	a0,48(sp)
c00215e8:	c0021537          	lui	a0,0xc0021
c00215ec:	33c50513          	addi	a0,a0,828 # c002133c <bootstacktop+0xfff7c33c>
c00215f0:	02a12a23          	sw	a0,52(sp)
c00215f4:	02a12623          	sw	a0,44(sp)
c00215f8:	00c10513          	addi	a0,sp,12
c00215fc:	02a12423          	sw	a0,40(sp)
c0021600:	02810513          	addi	a0,sp,40
c0021604:	02a12023          	sw	a0,32(sp)
c0021608:	00012c23          	sw	zero,24(sp)
c002160c:	00200513          	li	a0,2
c0021610:	02a12223          	sw	a0,36(sp)
c0021614:	00a12a23          	sw	a0,20(sp)
c0021618:	c0024537          	lui	a0,0xc0024
c002161c:	47450513          	addi	a0,a0,1140 # c0024474 <bootstacktop+0xfff7f474>
c0021620:	00a12823          	sw	a0,16(sp)
c0021624:	01010513          	addi	a0,sp,16
c0021628:	00068593          	mv	a1,a3
c002162c:	00000097          	auipc	ra,0x0
c0021630:	010080e7          	jalr	16(ra) # c002163c <_ZN4core9panicking9panic_fmt17h6c27fc8975b1212eE>
c0021634:	00000097          	auipc	ra,0x0
c0021638:	2a4080e7          	jalr	676(ra) # c00218d8 <abort>

c002163c <_ZN4core9panicking9panic_fmt17h6c27fc8975b1212eE>:
c002163c:	fe010113          	addi	sp,sp,-32
c0021640:	00112e23          	sw	ra,28(sp)
c0021644:	0005a603          	lw	a2,0(a1)
c0021648:	0045a683          	lw	a3,4(a1)
c002164c:	0085a703          	lw	a4,8(a1)
c0021650:	00c5a583          	lw	a1,12(a1)
c0021654:	00b12c23          	sw	a1,24(sp)
c0021658:	00e12a23          	sw	a4,20(sp)
c002165c:	00d12823          	sw	a3,16(sp)
c0021660:	00c12623          	sw	a2,12(sp)
c0021664:	00a12423          	sw	a0,8(sp)
c0021668:	c0024537          	lui	a0,0xc0024
c002166c:	43050513          	addi	a0,a0,1072 # c0024430 <bootstacktop+0xfff7f430>
c0021670:	00a12223          	sw	a0,4(sp)
c0021674:	c0024537          	lui	a0,0xc0024
c0021678:	43050513          	addi	a0,a0,1072 # c0024430 <bootstacktop+0xfff7f430>
c002167c:	00a12023          	sw	a0,0(sp)
c0021680:	00010513          	mv	a0,sp
c0021684:	00000097          	auipc	ra,0x0
c0021688:	078080e7          	jalr	120(ra) # c00216fc <rust_begin_unwind>
c002168c:	00000097          	auipc	ra,0x0
c0021690:	24c080e7          	jalr	588(ra) # c00218d8 <abort>

c0021694 <_ZN36_$LT$T$u20$as$u20$core..any..Any$GT$7type_id17h30c46b1a6e896e92E>:
c0021694:	c7c89537          	lui	a0,0xc7c89
c0021698:	97d50513          	addi	a0,a0,-1667 # c7c8897d <bootstacktop+0x7be397d>
c002169c:	bc74f5b7          	lui	a1,0xbc74f
c00216a0:	59458593          	addi	a1,a1,1428 # bc74f594 <bootstacktop+0xfc6aa594>
c00216a4:	00008067          	ret

c00216a8 <_ZN4core5panic9PanicInfo7message17hb2c124963f3d15baE>:
c00216a8:	00852503          	lw	a0,8(a0)
c00216ac:	00008067          	ret

c00216b0 <_ZN4core5panic9PanicInfo8location17h695696f8c8e966dfE>:
c00216b0:	00c50513          	addi	a0,a0,12
c00216b4:	00008067          	ret

c00216b8 <_ZN4core5panic8Location4file17h96c6dfb8acdcd1c6E>:
c00216b8:	00052603          	lw	a2,0(a0)
c00216bc:	00452583          	lw	a1,4(a0)
c00216c0:	00060513          	mv	a0,a2
c00216c4:	00008067          	ret

c00216c8 <_ZN4core5panic8Location4line17h51f6768773d3ebeeE>:
c00216c8:	00852503          	lw	a0,8(a0)
c00216cc:	00008067          	ret

c00216d0 <__mulsi3>:
c00216d0:	00000613          	li	a2,0
c00216d4:	02050063          	beqz	a0,c00216f4 <__mulsi3+0x24>
c00216d8:	00157693          	andi	a3,a0,1
c00216dc:	40d006b3          	neg	a3,a3
c00216e0:	00b6f6b3          	and	a3,a3,a1
c00216e4:	00c68633          	add	a2,a3,a2
c00216e8:	00159593          	slli	a1,a1,0x1
c00216ec:	00155513          	srli	a0,a0,0x1
c00216f0:	fe0514e3          	bnez	a0,c00216d8 <__mulsi3+0x8>
c00216f4:	00060513          	mv	a0,a2
c00216f8:	00008067          	ret

c00216fc <rust_begin_unwind>:
c00216fc:	f3010113          	addi	sp,sp,-208
c0021700:	0c112623          	sw	ra,204(sp)
c0021704:	02a12e23          	sw	a0,60(sp)
c0021708:	02a12c23          	sw	a0,56(sp)
c002170c:	00000097          	auipc	ra,0x0
c0021710:	fa4080e7          	jalr	-92(ra) # c00216b0 <_ZN4core5panic9PanicInfo8location17h695696f8c8e966dfE>
c0021714:	03812583          	lw	a1,56(sp)
c0021718:	02b12a23          	sw	a1,52(sp)
c002171c:	02a12823          	sw	a0,48(sp)
c0021720:	0040006f          	j	c0021724 <rust_begin_unwind+0x28>
c0021724:	03012503          	lw	a0,48(sp)
c0021728:	00000097          	auipc	ra,0x0
c002172c:	34c080e7          	jalr	844(ra) # c0021a74 <_ZN38_$LT$core..option..Option$LT$T$GT$$GT$6unwrap17hf55ae9adff19db40E>
c0021730:	04a12023          	sw	a0,64(sp)
c0021734:	0040006f          	j	c0021738 <rust_begin_unwind+0x3c>
c0021738:	03c12503          	lw	a0,60(sp)
c002173c:	00000097          	auipc	ra,0x0
c0021740:	f6c080e7          	jalr	-148(ra) # c00216a8 <_ZN4core5panic9PanicInfo7message17hb2c124963f3d15baE>
c0021744:	02a12623          	sw	a0,44(sp)
c0021748:	0040006f          	j	c002174c <rust_begin_unwind+0x50>
c002174c:	02c12503          	lw	a0,44(sp)
c0021750:	00000097          	auipc	ra,0x0
c0021754:	2a0080e7          	jalr	672(ra) # c00219f0 <_ZN38_$LT$core..option..Option$LT$T$GT$$GT$6unwrap17h281e73ac91d31d75E>
c0021758:	04a12223          	sw	a0,68(sp)
c002175c:	0040006f          	j	c0021760 <rust_begin_unwind+0x64>
c0021760:	04012503          	lw	a0,64(sp)
c0021764:	00000097          	auipc	ra,0x0
c0021768:	f54080e7          	jalr	-172(ra) # c00216b8 <_ZN4core5panic8Location4file17h96c6dfb8acdcd1c6E>
c002176c:	0ab12a23          	sw	a1,180(sp)
c0021770:	0aa12823          	sw	a0,176(sp)
c0021774:	0040006f          	j	c0021778 <rust_begin_unwind+0x7c>
c0021778:	04012503          	lw	a0,64(sp)
c002177c:	00000097          	auipc	ra,0x0
c0021780:	f4c080e7          	jalr	-180(ra) # c00216c8 <_ZN4core5panic8Location4line17h51f6768773d3ebeeE>
c0021784:	0aa12c23          	sw	a0,184(sp)
c0021788:	0040006f          	j	c002178c <rust_begin_unwind+0x90>
c002178c:	0b810513          	addi	a0,sp,184
c0021790:	0aa12223          	sw	a0,164(sp)
c0021794:	0ca12023          	sw	a0,192(sp)
c0021798:	04410513          	addi	a0,sp,68
c002179c:	0aa12423          	sw	a0,168(sp)
c00217a0:	0ca12223          	sw	a0,196(sp)
c00217a4:	0b010513          	addi	a0,sp,176
c00217a8:	0aa12023          	sw	a0,160(sp)
c00217ac:	0aa12e23          	sw	a0,188(sp)
c00217b0:	c00225b7          	lui	a1,0xc0022
c00217b4:	b9058593          	addi	a1,a1,-1136 # c0021b90 <bootstacktop+0xfff7cb90>
c00217b8:	00000097          	auipc	ra,0x0
c00217bc:	434080e7          	jalr	1076(ra) # c0021bec <_ZN4core3fmt10ArgumentV13new17ha707c36f9108dd0cE>
c00217c0:	02b12423          	sw	a1,40(sp)
c00217c4:	02a12223          	sw	a0,36(sp)
c00217c8:	0040006f          	j	c00217cc <rust_begin_unwind+0xd0>
c00217cc:	0c012503          	lw	a0,192(sp)
c00217d0:	c00215b7          	lui	a1,0xc0021
c00217d4:	33c58593          	addi	a1,a1,828 # c002133c <bootstacktop+0xfff7c33c>
c00217d8:	fffff097          	auipc	ra,0xfffff
c00217dc:	d0c080e7          	jalr	-756(ra) # c00204e4 <_ZN4core3fmt10ArgumentV13new17h2724bddd433b3160E>
c00217e0:	02b12023          	sw	a1,32(sp)
c00217e4:	00a12e23          	sw	a0,28(sp)
c00217e8:	0040006f          	j	c00217ec <rust_begin_unwind+0xf0>
c00217ec:	0c412503          	lw	a0,196(sp)
c00217f0:	c00205b7          	lui	a1,0xc0020
c00217f4:	44058593          	addi	a1,a1,1088 # c0020440 <bootstacktop+0xfff7b440>
c00217f8:	fffff097          	auipc	ra,0xfffff
c00217fc:	de8080e7          	jalr	-536(ra) # c00205e0 <_ZN4core3fmt10ArgumentV13new17hb8b327cc3f7153d7E>
c0021800:	00b12c23          	sw	a1,24(sp)
c0021804:	00a12a23          	sw	a0,20(sp)
c0021808:	0040006f          	j	c002180c <rust_begin_unwind+0x110>
c002180c:	01812503          	lw	a0,24(sp)
c0021810:	08a12e23          	sw	a0,156(sp)
c0021814:	01412583          	lw	a1,20(sp)
c0021818:	08b12c23          	sw	a1,152(sp)
c002181c:	02012603          	lw	a2,32(sp)
c0021820:	08c12a23          	sw	a2,148(sp)
c0021824:	01c12683          	lw	a3,28(sp)
c0021828:	08d12823          	sw	a3,144(sp)
c002182c:	02812703          	lw	a4,40(sp)
c0021830:	08e12623          	sw	a4,140(sp)
c0021834:	02412783          	lw	a5,36(sp)
c0021838:	08f12423          	sw	a5,136(sp)
c002183c:	c0024837          	lui	a6,0xc0024
c0021840:	4b080593          	addi	a1,a6,1200 # c00244b0 <bootstacktop+0xfff7f4b0>
c0021844:	07010513          	addi	a0,sp,112
c0021848:	08810693          	addi	a3,sp,136
c002184c:	00300813          	li	a6,3
c0021850:	00080613          	mv	a2,a6
c0021854:	00080713          	mv	a4,a6
c0021858:	00000097          	auipc	ra,0x0
c002185c:	3e8080e7          	jalr	1000(ra) # c0021c40 <_ZN4core3fmt9Arguments6new_v117hc9a772a58b64bf16E>
c0021860:	0040006f          	j	c0021864 <rust_begin_unwind+0x168>
c0021864:	07010513          	addi	a0,sp,112
c0021868:	0ca12423          	sw	a0,200(sp)
c002186c:	06a12623          	sw	a0,108(sp)
c0021870:	c00205b7          	lui	a1,0xc0020
c0021874:	63c58593          	addi	a1,a1,1596 # c002063c <bootstacktop+0xfff7b63c>
c0021878:	fffff097          	auipc	ra,0xfffff
c002187c:	d14080e7          	jalr	-748(ra) # c002058c <_ZN4core3fmt10ArgumentV13new17h6576345e0293bb5bE>
c0021880:	00b12823          	sw	a1,16(sp)
c0021884:	00a12623          	sw	a0,12(sp)
c0021888:	0040006f          	j	c002188c <rust_begin_unwind+0x190>
c002188c:	01012503          	lw	a0,16(sp)
c0021890:	06a12223          	sw	a0,100(sp)
c0021894:	00c12583          	lw	a1,12(sp)
c0021898:	06b12023          	sw	a1,96(sp)
c002189c:	c0024637          	lui	a2,0xc0024
c00218a0:	48860593          	addi	a1,a2,1160 # c0024488 <bootstacktop+0xfff7f488>
c00218a4:	04810513          	addi	a0,sp,72
c00218a8:	00200613          	li	a2,2
c00218ac:	06010693          	addi	a3,sp,96
c00218b0:	00100713          	li	a4,1
c00218b4:	00000097          	auipc	ra,0x0
c00218b8:	38c080e7          	jalr	908(ra) # c0021c40 <_ZN4core3fmt9Arguments6new_v117hc9a772a58b64bf16E>
c00218bc:	0040006f          	j	c00218c0 <rust_begin_unwind+0x1c4>
c00218c0:	04810513          	addi	a0,sp,72
c00218c4:	00000097          	auipc	ra,0x0
c00218c8:	5d0080e7          	jalr	1488(ra) # c0021e94 <_ZN7rcore322io6_print17hf550fc77485105c8E>
c00218cc:	0040006f          	j	c00218d0 <rust_begin_unwind+0x1d4>
c00218d0:	0040006f          	j	c00218d4 <rust_begin_unwind+0x1d8>
c00218d4:	0000006f          	j	c00218d4 <rust_begin_unwind+0x1d8>

c00218d8 <abort>:
c00218d8:	ff010113          	addi	sp,sp,-16
c00218dc:	00112623          	sw	ra,12(sp)
c00218e0:	c0024537          	lui	a0,0xc0024
c00218e4:	4e050513          	addi	a0,a0,1248 # c00244e0 <bootstacktop+0xfff7f4e0>
c00218e8:	00000097          	auipc	ra,0x0
c00218ec:	c70080e7          	jalr	-912(ra) # c0021558 <_ZN4core9panicking5panic17habb8bf93ce0fcf0dE>
c00218f0:	00000097          	auipc	ra,0x0
c00218f4:	fe8080e7          	jalr	-24(ra) # c00218d8 <abort>

c00218f8 <_ZN38_$LT$core..option..Option$LT$T$GT$$GT$3map17hd72cbf62101d19e1E>:
c00218f8:	fd010113          	addi	sp,sp,-48
c00218fc:	02112623          	sw	ra,44(sp)
c0021900:	00100593          	li	a1,1
c0021904:	02b10523          	sb	a1,42(sp)
c0021908:	02b105a3          	sb	a1,43(sp)
c002190c:	00a035b3          	snez	a1,a0
c0021910:	00a12623          	sw	a0,12(sp)
c0021914:	00050613          	mv	a2,a0
c0021918:	00000693          	li	a3,0
c002191c:	00b12423          	sw	a1,8(sp)
c0021920:	00c12223          	sw	a2,4(sp)
c0021924:	00d50c63          	beq	a0,a3,c002193c <_ZN38_$LT$core..option..Option$LT$T$GT$$GT$3map17hd72cbf62101d19e1E+0x44>
c0021928:	0040006f          	j	c002192c <_ZN38_$LT$core..option..Option$LT$T$GT$$GT$3map17hd72cbf62101d19e1E+0x34>
c002192c:	00000513          	li	a0,0
c0021930:	00812583          	lw	a1,8(sp)
c0021934:	00a59e63          	bne	a1,a0,c0021950 <_ZN38_$LT$core..option..Option$LT$T$GT$$GT$3map17hd72cbf62101d19e1E+0x58>
c0021938:	0100006f          	j	c0021948 <_ZN38_$LT$core..option..Option$LT$T$GT$$GT$3map17hd72cbf62101d19e1E+0x50>
c002193c:	00000513          	li	a0,0
c0021940:	00a10c23          	sb	a0,24(sp)
c0021944:	0480006f          	j	c002198c <_ZN38_$LT$core..option..Option$LT$T$GT$$GT$3map17hd72cbf62101d19e1E+0x94>
c0021948:	00000097          	auipc	ra,0x0
c002194c:	f90080e7          	jalr	-112(ra) # c00218d8 <abort>
c0021950:	00000513          	li	a0,0
c0021954:	02a105a3          	sb	a0,43(sp)
c0021958:	02a10523          	sb	a0,42(sp)
c002195c:	00c12503          	lw	a0,12(sp)
c0021960:	02a12023          	sw	a0,32(sp)
c0021964:	02a12223          	sw	a0,36(sp)
c0021968:	00000097          	auipc	ra,0x0
c002196c:	1d4080e7          	jalr	468(ra) # c0021b3c <_ZN53_$LT$core..option..Option$LT$$RF$$u27$a$u20$T$GT$$GT$6cloned28_$u7b$$u7b$closure$u7d$$u7d$17h86454b954b7d5eceE>
c0021970:	00a12023          	sw	a0,0(sp)
c0021974:	0040006f          	j	c0021978 <_ZN38_$LT$core..option..Option$LT$T$GT$$GT$3map17hd72cbf62101d19e1E+0x80>
c0021978:	00100513          	li	a0,1
c002197c:	00a10c23          	sb	a0,24(sp)
c0021980:	00012503          	lw	a0,0(sp)
c0021984:	00a10ca3          	sb	a0,25(sp)
c0021988:	0040006f          	j	c002198c <_ZN38_$LT$core..option..Option$LT$T$GT$$GT$3map17hd72cbf62101d19e1E+0x94>
c002198c:	02a14503          	lbu	a0,42(sp)
c0021990:	00157513          	andi	a0,a0,1
c0021994:	00051c63          	bnez	a0,c00219ac <_ZN38_$LT$core..option..Option$LT$T$GT$$GT$3map17hd72cbf62101d19e1E+0xb4>
c0021998:	0040006f          	j	c002199c <_ZN38_$LT$core..option..Option$LT$T$GT$$GT$3map17hd72cbf62101d19e1E+0xa4>
c002199c:	00000513          	li	a0,0
c00219a0:	00c12583          	lw	a1,12(sp)
c00219a4:	02a59463          	bne	a1,a0,c00219cc <_ZN38_$LT$core..option..Option$LT$T$GT$$GT$3map17hd72cbf62101d19e1E+0xd4>
c00219a8:	0440006f          	j	c00219ec <_ZN38_$LT$core..option..Option$LT$T$GT$$GT$3map17hd72cbf62101d19e1E+0xf4>
c00219ac:	00000513          	li	a0,0
c00219b0:	02a10523          	sb	a0,42(sp)
c00219b4:	fe9ff06f          	j	c002199c <_ZN38_$LT$core..option..Option$LT$T$GT$$GT$3map17hd72cbf62101d19e1E+0xa4>
c00219b8:	01814503          	lbu	a0,24(sp)
c00219bc:	01910583          	lb	a1,25(sp)
c00219c0:	02c12083          	lw	ra,44(sp)
c00219c4:	03010113          	addi	sp,sp,48
c00219c8:	00008067          	ret
c00219cc:	02b14503          	lbu	a0,43(sp)
c00219d0:	00157513          	andi	a0,a0,1
c00219d4:	00000593          	li	a1,0
c00219d8:	feb500e3          	beq	a0,a1,c00219b8 <_ZN38_$LT$core..option..Option$LT$T$GT$$GT$3map17hd72cbf62101d19e1E+0xc0>
c00219dc:	0040006f          	j	c00219e0 <_ZN38_$LT$core..option..Option$LT$T$GT$$GT$3map17hd72cbf62101d19e1E+0xe8>
c00219e0:	00000513          	li	a0,0
c00219e4:	02a105a3          	sb	a0,43(sp)
c00219e8:	fd1ff06f          	j	c00219b8 <_ZN38_$LT$core..option..Option$LT$T$GT$$GT$3map17hd72cbf62101d19e1E+0xc0>
c00219ec:	fcdff06f          	j	c00219b8 <_ZN38_$LT$core..option..Option$LT$T$GT$$GT$3map17hd72cbf62101d19e1E+0xc0>

c00219f0 <_ZN38_$LT$core..option..Option$LT$T$GT$$GT$6unwrap17h281e73ac91d31d75E>:
c00219f0:	fe010113          	addi	sp,sp,-32
c00219f4:	00112e23          	sw	ra,28(sp)
c00219f8:	00a035b3          	snez	a1,a0
c00219fc:	00a12a23          	sw	a0,20(sp)
c0021a00:	00050613          	mv	a2,a0
c0021a04:	00000693          	li	a3,0
c0021a08:	00b12823          	sw	a1,16(sp)
c0021a0c:	00c12623          	sw	a2,12(sp)
c0021a10:	00d50c63          	beq	a0,a3,c0021a28 <_ZN38_$LT$core..option..Option$LT$T$GT$$GT$6unwrap17h281e73ac91d31d75E+0x38>
c0021a14:	0040006f          	j	c0021a18 <_ZN38_$LT$core..option..Option$LT$T$GT$$GT$6unwrap17h281e73ac91d31d75E+0x28>
c0021a18:	00000513          	li	a0,0
c0021a1c:	01012583          	lw	a1,16(sp)
c0021a20:	02a59463          	bne	a1,a0,c0021a48 <_ZN38_$LT$core..option..Option$LT$T$GT$$GT$6unwrap17h281e73ac91d31d75E+0x58>
c0021a24:	01c0006f          	j	c0021a40 <_ZN38_$LT$core..option..Option$LT$T$GT$$GT$6unwrap17h281e73ac91d31d75E+0x50>
c0021a28:	c0024537          	lui	a0,0xc0024
c0021a2c:	58c50513          	addi	a0,a0,1420 # c002458c <bootstacktop+0xfff7f58c>
c0021a30:	00000097          	auipc	ra,0x0
c0021a34:	b28080e7          	jalr	-1240(ra) # c0021558 <_ZN4core9panicking5panic17habb8bf93ce0fcf0dE>
c0021a38:	00000097          	auipc	ra,0x0
c0021a3c:	ea0080e7          	jalr	-352(ra) # c00218d8 <abort>
c0021a40:	00000097          	auipc	ra,0x0
c0021a44:	e98080e7          	jalr	-360(ra) # c00218d8 <abort>
c0021a48:	01412503          	lw	a0,20(sp)
c0021a4c:	00a12c23          	sw	a0,24(sp)
c0021a50:	00000593          	li	a1,0
c0021a54:	00a12423          	sw	a0,8(sp)
c0021a58:	00b50c63          	beq	a0,a1,c0021a70 <_ZN38_$LT$core..option..Option$LT$T$GT$$GT$6unwrap17h281e73ac91d31d75E+0x80>
c0021a5c:	0040006f          	j	c0021a60 <_ZN38_$LT$core..option..Option$LT$T$GT$$GT$6unwrap17h281e73ac91d31d75E+0x70>
c0021a60:	00812503          	lw	a0,8(sp)
c0021a64:	01c12083          	lw	ra,28(sp)
c0021a68:	02010113          	addi	sp,sp,32
c0021a6c:	00008067          	ret
c0021a70:	ff1ff06f          	j	c0021a60 <_ZN38_$LT$core..option..Option$LT$T$GT$$GT$6unwrap17h281e73ac91d31d75E+0x70>

c0021a74 <_ZN38_$LT$core..option..Option$LT$T$GT$$GT$6unwrap17hf55ae9adff19db40E>:
c0021a74:	fe010113          	addi	sp,sp,-32
c0021a78:	00112e23          	sw	ra,28(sp)
c0021a7c:	00a035b3          	snez	a1,a0
c0021a80:	00a12a23          	sw	a0,20(sp)
c0021a84:	00050613          	mv	a2,a0
c0021a88:	00000693          	li	a3,0
c0021a8c:	00b12823          	sw	a1,16(sp)
c0021a90:	00c12623          	sw	a2,12(sp)
c0021a94:	00d50c63          	beq	a0,a3,c0021aac <_ZN38_$LT$core..option..Option$LT$T$GT$$GT$6unwrap17hf55ae9adff19db40E+0x38>
c0021a98:	0040006f          	j	c0021a9c <_ZN38_$LT$core..option..Option$LT$T$GT$$GT$6unwrap17hf55ae9adff19db40E+0x28>
c0021a9c:	00000513          	li	a0,0
c0021aa0:	01012583          	lw	a1,16(sp)
c0021aa4:	02a59463          	bne	a1,a0,c0021acc <_ZN38_$LT$core..option..Option$LT$T$GT$$GT$6unwrap17hf55ae9adff19db40E+0x58>
c0021aa8:	01c0006f          	j	c0021ac4 <_ZN38_$LT$core..option..Option$LT$T$GT$$GT$6unwrap17hf55ae9adff19db40E+0x50>
c0021aac:	c0024537          	lui	a0,0xc0024
c0021ab0:	58c50513          	addi	a0,a0,1420 # c002458c <bootstacktop+0xfff7f58c>
c0021ab4:	00000097          	auipc	ra,0x0
c0021ab8:	aa4080e7          	jalr	-1372(ra) # c0021558 <_ZN4core9panicking5panic17habb8bf93ce0fcf0dE>
c0021abc:	00000097          	auipc	ra,0x0
c0021ac0:	e1c080e7          	jalr	-484(ra) # c00218d8 <abort>
c0021ac4:	00000097          	auipc	ra,0x0
c0021ac8:	e14080e7          	jalr	-492(ra) # c00218d8 <abort>
c0021acc:	01412503          	lw	a0,20(sp)
c0021ad0:	00a12c23          	sw	a0,24(sp)
c0021ad4:	00000593          	li	a1,0
c0021ad8:	00a12423          	sw	a0,8(sp)
c0021adc:	00b50c63          	beq	a0,a1,c0021af4 <_ZN38_$LT$core..option..Option$LT$T$GT$$GT$6unwrap17hf55ae9adff19db40E+0x80>
c0021ae0:	0040006f          	j	c0021ae4 <_ZN38_$LT$core..option..Option$LT$T$GT$$GT$6unwrap17hf55ae9adff19db40E+0x70>
c0021ae4:	00812503          	lw	a0,8(sp)
c0021ae8:	01c12083          	lw	ra,28(sp)
c0021aec:	02010113          	addi	sp,sp,32
c0021af0:	00008067          	ret
c0021af4:	ff1ff06f          	j	c0021ae4 <_ZN38_$LT$core..option..Option$LT$T$GT$$GT$6unwrap17hf55ae9adff19db40E+0x70>

c0021af8 <_ZN53_$LT$core..option..Option$LT$$RF$$u27$a$u20$T$GT$$GT$6cloned17h37740463021addfbE>:
c0021af8:	fe010113          	addi	sp,sp,-32
c0021afc:	00112e23          	sw	ra,28(sp)
c0021b00:	00a12a23          	sw	a0,20(sp)
c0021b04:	00a12823          	sw	a0,16(sp)
c0021b08:	00000097          	auipc	ra,0x0
c0021b0c:	df0080e7          	jalr	-528(ra) # c00218f8 <_ZN38_$LT$core..option..Option$LT$T$GT$$GT$3map17hd72cbf62101d19e1E>
c0021b10:	01012603          	lw	a2,16(sp)
c0021b14:	00c12623          	sw	a2,12(sp)
c0021b18:	00b12423          	sw	a1,8(sp)
c0021b1c:	00a12223          	sw	a0,4(sp)
c0021b20:	0040006f          	j	c0021b24 <_ZN53_$LT$core..option..Option$LT$$RF$$u27$a$u20$T$GT$$GT$6cloned17h37740463021addfbE+0x2c>
c0021b24:	00412503          	lw	a0,4(sp)
c0021b28:	00157513          	andi	a0,a0,1
c0021b2c:	00812583          	lw	a1,8(sp)
c0021b30:	01c12083          	lw	ra,28(sp)
c0021b34:	02010113          	addi	sp,sp,32
c0021b38:	00008067          	ret

c0021b3c <_ZN53_$LT$core..option..Option$LT$$RF$$u27$a$u20$T$GT$$GT$6cloned28_$u7b$$u7b$closure$u7d$$u7d$17h86454b954b7d5eceE>:
c0021b3c:	fe010113          	addi	sp,sp,-32
c0021b40:	00112e23          	sw	ra,28(sp)
c0021b44:	00a12c23          	sw	a0,24(sp)
c0021b48:	00a12623          	sw	a0,12(sp)
c0021b4c:	00000097          	auipc	ra,0x0
c0021b50:	028080e7          	jalr	40(ra) # c0021b74 <_ZN4core5clone5impls51_$LT$impl$u20$core..clone..Clone$u20$for$u20$u8$GT$5clone17hd762ab9c9e2e9a5fE>
c0021b54:	00c12583          	lw	a1,12(sp)
c0021b58:	00b12423          	sw	a1,8(sp)
c0021b5c:	00a12223          	sw	a0,4(sp)
c0021b60:	0040006f          	j	c0021b64 <_ZN53_$LT$core..option..Option$LT$$RF$$u27$a$u20$T$GT$$GT$6cloned28_$u7b$$u7b$closure$u7d$$u7d$17h86454b954b7d5eceE+0x28>
c0021b64:	00412503          	lw	a0,4(sp)
c0021b68:	01c12083          	lw	ra,28(sp)
c0021b6c:	02010113          	addi	sp,sp,32
c0021b70:	00008067          	ret

c0021b74 <_ZN4core5clone5impls51_$LT$impl$u20$core..clone..Clone$u20$for$u20$u8$GT$5clone17hd762ab9c9e2e9a5fE>:
c0021b74:	ff010113          	addi	sp,sp,-16
c0021b78:	00a12623          	sw	a0,12(sp)
c0021b7c:	00050593          	mv	a1,a0
c0021b80:	00050503          	lb	a0,0(a0)
c0021b84:	00b12423          	sw	a1,8(sp)
c0021b88:	01010113          	addi	sp,sp,16
c0021b8c:	00008067          	ret

c0021b90 <_ZN44_$LT$$RF$T$u20$as$u20$core..fmt..Display$GT$3fmt17h0ba3785053fb50dfE>:
c0021b90:	fe010113          	addi	sp,sp,-32
c0021b94:	00112e23          	sw	ra,28(sp)
c0021b98:	00b12c23          	sw	a1,24(sp)
c0021b9c:	00a12a23          	sw	a0,20(sp)
c0021ba0:	00452603          	lw	a2,4(a0)
c0021ba4:	00052683          	lw	a3,0(a0)
c0021ba8:	00a12823          	sw	a0,16(sp)
c0021bac:	00068513          	mv	a0,a3
c0021bb0:	00b12623          	sw	a1,12(sp)
c0021bb4:	00060593          	mv	a1,a2
c0021bb8:	00c12603          	lw	a2,12(sp)
c0021bbc:	fffff097          	auipc	ra,0xfffff
c0021bc0:	644080e7          	jalr	1604(ra) # c0021200 <_ZN42_$LT$str$u20$as$u20$core..fmt..Display$GT$3fmt17h959f537f6061589aE>
c0021bc4:	00c12583          	lw	a1,12(sp)
c0021bc8:	01012603          	lw	a2,16(sp)
c0021bcc:	00b12423          	sw	a1,8(sp)
c0021bd0:	00c12223          	sw	a2,4(sp)
c0021bd4:	00a12023          	sw	a0,0(sp)
c0021bd8:	0040006f          	j	c0021bdc <_ZN44_$LT$$RF$T$u20$as$u20$core..fmt..Display$GT$3fmt17h0ba3785053fb50dfE+0x4c>
c0021bdc:	00012503          	lw	a0,0(sp)
c0021be0:	01c12083          	lw	ra,28(sp)
c0021be4:	02010113          	addi	sp,sp,32
c0021be8:	00008067          	ret

c0021bec <_ZN4core3fmt10ArgumentV13new17ha707c36f9108dd0cE>:
c0021bec:	fd010113          	addi	sp,sp,-48
c0021bf0:	00b12e23          	sw	a1,28(sp)
c0021bf4:	02b12423          	sw	a1,40(sp)
c0021bf8:	00058613          	mv	a2,a1
c0021bfc:	00a12c23          	sw	a0,24(sp)
c0021c00:	00c12a23          	sw	a2,20(sp)
c0021c04:	00b12823          	sw	a1,16(sp)
c0021c08:	00a12623          	sw	a0,12(sp)
c0021c0c:	0040006f          	j	c0021c10 <_ZN4core3fmt10ArgumentV13new17ha707c36f9108dd0cE+0x24>
c0021c10:	01812503          	lw	a0,24(sp)
c0021c14:	02a12623          	sw	a0,44(sp)
c0021c18:	00a12423          	sw	a0,8(sp)
c0021c1c:	0040006f          	j	c0021c20 <_ZN4core3fmt10ArgumentV13new17ha707c36f9108dd0cE+0x34>
c0021c20:	01412503          	lw	a0,20(sp)
c0021c24:	02a12223          	sw	a0,36(sp)
c0021c28:	00812583          	lw	a1,8(sp)
c0021c2c:	02b12023          	sw	a1,32(sp)
c0021c30:	00058513          	mv	a0,a1
c0021c34:	01412583          	lw	a1,20(sp)
c0021c38:	03010113          	addi	sp,sp,48
c0021c3c:	00008067          	ret

c0021c40 <_ZN4core3fmt9Arguments6new_v117hc9a772a58b64bf16E>:
c0021c40:	fd010113          	addi	sp,sp,-48
c0021c44:	00000793          	li	a5,0
c0021c48:	02f12423          	sw	a5,40(sp)
c0021c4c:	00c12e23          	sw	a2,28(sp)
c0021c50:	00b12c23          	sw	a1,24(sp)
c0021c54:	02e12223          	sw	a4,36(sp)
c0021c58:	02d12023          	sw	a3,32(sp)
c0021c5c:	00c52223          	sw	a2,4(a0)
c0021c60:	00b52023          	sw	a1,0(a0)
c0021c64:	02812783          	lw	a5,40(sp)
c0021c68:	02c12803          	lw	a6,44(sp)
c0021c6c:	01052623          	sw	a6,12(a0)
c0021c70:	00f52423          	sw	a5,8(a0)
c0021c74:	00e52a23          	sw	a4,20(a0)
c0021c78:	00d52823          	sw	a3,16(a0)
c0021c7c:	00e12a23          	sw	a4,20(sp)
c0021c80:	00d12823          	sw	a3,16(sp)
c0021c84:	00c12623          	sw	a2,12(sp)
c0021c88:	00b12423          	sw	a1,8(sp)
c0021c8c:	00a12223          	sw	a0,4(sp)
c0021c90:	03010113          	addi	sp,sp,48
c0021c94:	00008067          	ret

c0021c98 <_ZN60_$LT$rcore32..io..SerialPort$u20$as$u20$core..fmt..Write$GT$9write_str17h51eef6fc0424f22eE>:
c0021c98:	f9010113          	addi	sp,sp,-112
c0021c9c:	06112623          	sw	ra,108(sp)
c0021ca0:	02c12e23          	sw	a2,60(sp)
c0021ca4:	02b12c23          	sw	a1,56(sp)
c0021ca8:	02a12a23          	sw	a0,52(sp)
c0021cac:	02a12823          	sw	a0,48(sp)
c0021cb0:	00058513          	mv	a0,a1
c0021cb4:	02b12623          	sw	a1,44(sp)
c0021cb8:	00060593          	mv	a1,a2
c0021cbc:	02c12423          	sw	a2,40(sp)
c0021cc0:	00001097          	auipc	ra,0x1
c0021cc4:	c64080e7          	jalr	-924(ra) # c0022924 <_ZN4core3str21_$LT$impl$u20$str$GT$5bytes17h2a7ab93c675da6d9E>
c0021cc8:	02812603          	lw	a2,40(sp)
c0021ccc:	02c12683          	lw	a3,44(sp)
c0021cd0:	03012703          	lw	a4,48(sp)
c0021cd4:	02c12223          	sw	a2,36(sp)
c0021cd8:	02d12023          	sw	a3,32(sp)
c0021cdc:	00e12e23          	sw	a4,28(sp)
c0021ce0:	00b12c23          	sw	a1,24(sp)
c0021ce4:	00a12a23          	sw	a0,20(sp)
c0021ce8:	0040006f          	j	c0021cec <_ZN60_$LT$rcore32..io..SerialPort$u20$as$u20$core..fmt..Write$GT$9write_str17h51eef6fc0424f22eE+0x54>
c0021cec:	01412503          	lw	a0,20(sp)
c0021cf0:	01812583          	lw	a1,24(sp)
c0021cf4:	00001097          	auipc	ra,0x1
c0021cf8:	2d4080e7          	jalr	724(ra) # c0022fc8 <_ZN63_$LT$I$u20$as$u20$core..iter..traits..collect..IntoIterator$GT$9into_iter17h236c5fd2059135e1E>
c0021cfc:	00b12823          	sw	a1,16(sp)
c0021d00:	00a12623          	sw	a0,12(sp)
c0021d04:	0040006f          	j	c0021d08 <_ZN60_$LT$rcore32..io..SerialPort$u20$as$u20$core..fmt..Write$GT$9write_str17h51eef6fc0424f22eE+0x70>
c0021d08:	01012503          	lw	a0,16(sp)
c0021d0c:	04a12a23          	sw	a0,84(sp)
c0021d10:	00c12583          	lw	a1,12(sp)
c0021d14:	04b12823          	sw	a1,80(sp)
c0021d18:	0040006f          	j	c0021d1c <_ZN60_$LT$rcore32..io..SerialPort$u20$as$u20$core..fmt..Write$GT$9write_str17h51eef6fc0424f22eE+0x84>
c0021d1c:	05010513          	addi	a0,sp,80
c0021d20:	00001097          	auipc	ra,0x1
c0021d24:	cc0080e7          	jalr	-832(ra) # c00229e0 <_ZN89_$LT$core..str..Bytes$LT$$u27$_$GT$$u20$as$u20$core..iter..traits..iterator..Iterator$GT$4next17h91931c020bf26e1fE>
c0021d28:	06b100a3          	sb	a1,97(sp)
c0021d2c:	06a10023          	sb	a0,96(sp)
c0021d30:	0040006f          	j	c0021d34 <_ZN60_$LT$rcore32..io..SerialPort$u20$as$u20$core..fmt..Write$GT$9write_str17h51eef6fc0424f22eE+0x9c>
c0021d34:	06014503          	lbu	a0,96(sp)
c0021d38:	00157593          	andi	a1,a0,1
c0021d3c:	00000613          	li	a2,0
c0021d40:	00a12423          	sw	a0,8(sp)
c0021d44:	00c58c63          	beq	a1,a2,c0021d5c <_ZN60_$LT$rcore32..io..SerialPort$u20$as$u20$core..fmt..Write$GT$9write_str17h51eef6fc0424f22eE+0xc4>
c0021d48:	0040006f          	j	c0021d4c <_ZN60_$LT$rcore32..io..SerialPort$u20$as$u20$core..fmt..Write$GT$9write_str17h51eef6fc0424f22eE+0xb4>
c0021d4c:	00100513          	li	a0,1
c0021d50:	00812583          	lw	a1,8(sp)
c0021d54:	02a58263          	beq	a1,a0,c0021d78 <_ZN60_$LT$rcore32..io..SerialPort$u20$as$u20$core..fmt..Write$GT$9write_str17h51eef6fc0424f22eE+0xe0>
c0021d58:	0180006f          	j	c0021d70 <_ZN60_$LT$rcore32..io..SerialPort$u20$as$u20$core..fmt..Write$GT$9write_str17h51eef6fc0424f22eE+0xd8>
c0021d5c:	00000513          	li	a0,0
c0021d60:	04a103a3          	sb	a0,71(sp)
c0021d64:	06c12083          	lw	ra,108(sp)
c0021d68:	07010113          	addi	sp,sp,112
c0021d6c:	00008067          	ret
c0021d70:	00000097          	auipc	ra,0x0
c0021d74:	b68080e7          	jalr	-1176(ra) # c00218d8 <abort>
c0021d78:	06114503          	lbu	a0,97(sp)
c0021d7c:	06a10323          	sb	a0,102(sp)
c0021d80:	04a10fa3          	sb	a0,95(sp)
c0021d84:	06a103a3          	sb	a0,103(sp)
c0021d88:	07f00593          	li	a1,127
c0021d8c:	00b51c63          	bne	a0,a1,c0021da4 <_ZN60_$LT$rcore32..io..SerialPort$u20$as$u20$core..fmt..Write$GT$9write_str17h51eef6fc0424f22eE+0x10c>
c0021d90:	0040006f          	j	c0021d94 <_ZN60_$LT$rcore32..io..SerialPort$u20$as$u20$core..fmt..Write$GT$9write_str17h51eef6fc0424f22eE+0xfc>
c0021d94:	00800513          	li	a0,8
c0021d98:	00000097          	auipc	ra,0x0
c0021d9c:	044080e7          	jalr	68(ra) # c0021ddc <_ZN7rcore322io7putchar17ha695d265abd620b8E>
c0021da0:	0140006f          	j	c0021db4 <_ZN60_$LT$rcore32..io..SerialPort$u20$as$u20$core..fmt..Write$GT$9write_str17h51eef6fc0424f22eE+0x11c>
c0021da4:	06710503          	lb	a0,103(sp)
c0021da8:	00000097          	auipc	ra,0x0
c0021dac:	034080e7          	jalr	52(ra) # c0021ddc <_ZN7rcore322io7putchar17ha695d265abd620b8E>
c0021db0:	0240006f          	j	c0021dd4 <_ZN60_$LT$rcore32..io..SerialPort$u20$as$u20$core..fmt..Write$GT$9write_str17h51eef6fc0424f22eE+0x13c>
c0021db4:	02000513          	li	a0,32
c0021db8:	00000097          	auipc	ra,0x0
c0021dbc:	024080e7          	jalr	36(ra) # c0021ddc <_ZN7rcore322io7putchar17ha695d265abd620b8E>
c0021dc0:	0040006f          	j	c0021dc4 <_ZN60_$LT$rcore32..io..SerialPort$u20$as$u20$core..fmt..Write$GT$9write_str17h51eef6fc0424f22eE+0x12c>
c0021dc4:	00800513          	li	a0,8
c0021dc8:	00000097          	auipc	ra,0x0
c0021dcc:	014080e7          	jalr	20(ra) # c0021ddc <_ZN7rcore322io7putchar17ha695d265abd620b8E>
c0021dd0:	0080006f          	j	c0021dd8 <_ZN60_$LT$rcore32..io..SerialPort$u20$as$u20$core..fmt..Write$GT$9write_str17h51eef6fc0424f22eE+0x140>
c0021dd4:	0040006f          	j	c0021dd8 <_ZN60_$LT$rcore32..io..SerialPort$u20$as$u20$core..fmt..Write$GT$9write_str17h51eef6fc0424f22eE+0x140>
c0021dd8:	f45ff06f          	j	c0021d1c <_ZN60_$LT$rcore32..io..SerialPort$u20$as$u20$core..fmt..Write$GT$9write_str17h51eef6fc0424f22eE+0x84>

c0021ddc <_ZN7rcore322io7putchar17ha695d265abd620b8E>:
c0021ddc:	ff010113          	addi	sp,sp,-16
c0021de0:	00112623          	sw	ra,12(sp)
c0021de4:	00a105a3          	sb	a0,11(sp)
c0021de8:	0ff57593          	andi	a1,a0,255
c0021dec:	00a12223          	sw	a0,4(sp)
c0021df0:	00058513          	mv	a0,a1
c0021df4:	00001097          	auipc	ra,0x1
c0021df8:	708080e7          	jalr	1800(ra) # c00234fc <_ZN7rcore323sbi15console_putchar17hd0374bf33038845cE>
c0021dfc:	00412503          	lw	a0,4(sp)
c0021e00:	00a12023          	sw	a0,0(sp)
c0021e04:	0040006f          	j	c0021e08 <_ZN7rcore322io7putchar17ha695d265abd620b8E+0x2c>
c0021e08:	00c12083          	lw	ra,12(sp)
c0021e0c:	01010113          	addi	sp,sp,16
c0021e10:	00008067          	ret

c0021e14 <_ZN7rcore322io6putfmt17h4ce5f9890a56b694E>:
c0021e14:	fc010113          	addi	sp,sp,-64
c0021e18:	02112e23          	sw	ra,60(sp)
c0021e1c:	01452583          	lw	a1,20(a0)
c0021e20:	02b12a23          	sw	a1,52(sp)
c0021e24:	01052583          	lw	a1,16(a0)
c0021e28:	02b12823          	sw	a1,48(sp)
c0021e2c:	00c52583          	lw	a1,12(a0)
c0021e30:	02b12623          	sw	a1,44(sp)
c0021e34:	00852583          	lw	a1,8(a0)
c0021e38:	02b12423          	sw	a1,40(sp)
c0021e3c:	00452583          	lw	a1,4(a0)
c0021e40:	02b12223          	sw	a1,36(sp)
c0021e44:	00052583          	lw	a1,0(a0)
c0021e48:	02b12023          	sw	a1,32(sp)
c0021e4c:	01810593          	addi	a1,sp,24
c0021e50:	02010613          	addi	a2,sp,32
c0021e54:	00a12a23          	sw	a0,20(sp)
c0021e58:	00058513          	mv	a0,a1
c0021e5c:	00060593          	mv	a1,a2
c0021e60:	00000097          	auipc	ra,0x0
c0021e64:	288080e7          	jalr	648(ra) # c00220e8 <_ZN4core3fmt5Write9write_fmt17he0b1b2fd37fe8b5fE>
c0021e68:	01412583          	lw	a1,20(sp)
c0021e6c:	00b12823          	sw	a1,16(sp)
c0021e70:	00a12623          	sw	a0,12(sp)
c0021e74:	0040006f          	j	c0021e78 <_ZN7rcore322io6putfmt17h4ce5f9890a56b694E+0x64>
c0021e78:	00c12503          	lw	a0,12(sp)
c0021e7c:	00000097          	auipc	ra,0x0
c0021e80:	07c080e7          	jalr	124(ra) # c0021ef8 <_ZN47_$LT$core..result..Result$LT$T$C$$u20$E$GT$$GT$6unwrap17h8f40dfb3246e4360E>
c0021e84:	0040006f          	j	c0021e88 <_ZN7rcore322io6putfmt17h4ce5f9890a56b694E+0x74>
c0021e88:	03c12083          	lw	ra,60(sp)
c0021e8c:	04010113          	addi	sp,sp,64
c0021e90:	00008067          	ret

c0021e94 <_ZN7rcore322io6_print17hf550fc77485105c8E>:
c0021e94:	fd010113          	addi	sp,sp,-48
c0021e98:	02112623          	sw	ra,44(sp)
c0021e9c:	01452583          	lw	a1,20(a0)
c0021ea0:	02b12223          	sw	a1,36(sp)
c0021ea4:	01052583          	lw	a1,16(a0)
c0021ea8:	02b12023          	sw	a1,32(sp)
c0021eac:	00c52583          	lw	a1,12(a0)
c0021eb0:	00b12e23          	sw	a1,28(sp)
c0021eb4:	00852583          	lw	a1,8(a0)
c0021eb8:	00b12c23          	sw	a1,24(sp)
c0021ebc:	00452583          	lw	a1,4(a0)
c0021ec0:	00b12a23          	sw	a1,20(sp)
c0021ec4:	00052583          	lw	a1,0(a0)
c0021ec8:	00b12823          	sw	a1,16(sp)
c0021ecc:	01010593          	addi	a1,sp,16
c0021ed0:	00a12623          	sw	a0,12(sp)
c0021ed4:	00058513          	mv	a0,a1
c0021ed8:	00000097          	auipc	ra,0x0
c0021edc:	f3c080e7          	jalr	-196(ra) # c0021e14 <_ZN7rcore322io6putfmt17h4ce5f9890a56b694E>
c0021ee0:	00c12503          	lw	a0,12(sp)
c0021ee4:	00a12423          	sw	a0,8(sp)
c0021ee8:	0040006f          	j	c0021eec <_ZN7rcore322io6_print17hf550fc77485105c8E+0x58>
c0021eec:	02c12083          	lw	ra,44(sp)
c0021ef0:	03010113          	addi	sp,sp,48
c0021ef4:	00008067          	ret

c0021ef8 <_ZN47_$LT$core..result..Result$LT$T$C$$u20$E$GT$$GT$6unwrap17h8f40dfb3246e4360E>:
c0021ef8:	fe010113          	addi	sp,sp,-32
c0021efc:	00112e23          	sw	ra,28(sp)
c0021f00:	00a107a3          	sb	a0,15(sp)
c0021f04:	00050593          	mv	a1,a0
c0021f08:	00050613          	mv	a2,a0
c0021f0c:	00000693          	li	a3,0
c0021f10:	00b12423          	sw	a1,8(sp)
c0021f14:	00c12223          	sw	a2,4(sp)
c0021f18:	02d50063          	beq	a0,a3,c0021f38 <_ZN47_$LT$core..result..Result$LT$T$C$$u20$E$GT$$GT$6unwrap17h8f40dfb3246e4360E+0x40>
c0021f1c:	0040006f          	j	c0021f20 <_ZN47_$LT$core..result..Result$LT$T$C$$u20$E$GT$$GT$6unwrap17h8f40dfb3246e4360E+0x28>
c0021f20:	00000513          	li	a0,0
c0021f24:	00812583          	lw	a1,8(sp)
c0021f28:	02a59263          	bne	a1,a0,c0021f4c <_ZN47_$LT$core..result..Result$LT$T$C$$u20$E$GT$$GT$6unwrap17h8f40dfb3246e4360E+0x54>
c0021f2c:	0040006f          	j	c0021f30 <_ZN47_$LT$core..result..Result$LT$T$C$$u20$E$GT$$GT$6unwrap17h8f40dfb3246e4360E+0x38>
c0021f30:	00000097          	auipc	ra,0x0
c0021f34:	9a8080e7          	jalr	-1624(ra) # c00218d8 <abort>
c0021f38:	00f14503          	lbu	a0,15(sp)
c0021f3c:	00157513          	andi	a0,a0,1
c0021f40:	00000593          	li	a1,0
c0021f44:	02b50263          	beq	a0,a1,c0021f68 <_ZN47_$LT$core..result..Result$LT$T$C$$u20$E$GT$$GT$6unwrap17h8f40dfb3246e4360E+0x70>
c0021f48:	02c0006f          	j	c0021f74 <_ZN47_$LT$core..result..Result$LT$T$C$$u20$E$GT$$GT$6unwrap17h8f40dfb3246e4360E+0x7c>
c0021f4c:	c0024537          	lui	a0,0xc0024
c0021f50:	5a450513          	addi	a0,a0,1444 # c00245a4 <bootstacktop+0xfff7f5a4>
c0021f54:	02b00593          	li	a1,43
c0021f58:	00000097          	auipc	ra,0x0
c0021f5c:	020080e7          	jalr	32(ra) # c0021f78 <_ZN4core6result13unwrap_failed17hcbcf07022a52acf3E>
c0021f60:	00000097          	auipc	ra,0x0
c0021f64:	978080e7          	jalr	-1672(ra) # c00218d8 <abort>
c0021f68:	01c12083          	lw	ra,28(sp)
c0021f6c:	02010113          	addi	sp,sp,32
c0021f70:	00008067          	ret
c0021f74:	ff5ff06f          	j	c0021f68 <_ZN47_$LT$core..result..Result$LT$T$C$$u20$E$GT$$GT$6unwrap17h8f40dfb3246e4360E+0x70>

c0021f78 <_ZN4core6result13unwrap_failed17hcbcf07022a52acf3E>:
c0021f78:	f9010113          	addi	sp,sp,-112
c0021f7c:	06112623          	sw	ra,108(sp)
c0021f80:	02810613          	addi	a2,sp,40
c0021f84:	04c12e23          	sw	a2,92(sp)
c0021f88:	06c12423          	sw	a2,104(sp)
c0021f8c:	02b12223          	sw	a1,36(sp)
c0021f90:	02a12023          	sw	a0,32(sp)
c0021f94:	02010613          	addi	a2,sp,32
c0021f98:	04c12c23          	sw	a2,88(sp)
c0021f9c:	06c12223          	sw	a2,100(sp)
c0021fa0:	c00226b7          	lui	a3,0xc0022
c0021fa4:	b9068693          	addi	a3,a3,-1136 # c0021b90 <bootstacktop+0xfff7cb90>
c0021fa8:	00a12e23          	sw	a0,28(sp)
c0021fac:	00060513          	mv	a0,a2
c0021fb0:	00b12c23          	sw	a1,24(sp)
c0021fb4:	00068593          	mv	a1,a3
c0021fb8:	00000097          	auipc	ra,0x0
c0021fbc:	c34080e7          	jalr	-972(ra) # c0021bec <_ZN4core3fmt10ArgumentV13new17ha707c36f9108dd0cE>
c0021fc0:	01812603          	lw	a2,24(sp)
c0021fc4:	01c12683          	lw	a3,28(sp)
c0021fc8:	00c12a23          	sw	a2,20(sp)
c0021fcc:	00d12823          	sw	a3,16(sp)
c0021fd0:	00b12623          	sw	a1,12(sp)
c0021fd4:	00a12423          	sw	a0,8(sp)
c0021fd8:	0040006f          	j	c0021fdc <_ZN4core6result13unwrap_failed17hcbcf07022a52acf3E+0x64>
c0021fdc:	06812503          	lw	a0,104(sp)
c0021fe0:	c00215b7          	lui	a1,0xc0021
c0021fe4:	21858593          	addi	a1,a1,536 # c0021218 <bootstacktop+0xfff7c218>
c0021fe8:	ffffe097          	auipc	ra,0xffffe
c0021fec:	550080e7          	jalr	1360(ra) # c0020538 <_ZN4core3fmt10ArgumentV13new17h50a1dfb09305a494E>
c0021ff0:	00b12223          	sw	a1,4(sp)
c0021ff4:	00a12023          	sw	a0,0(sp)
c0021ff8:	0040006f          	j	c0021ffc <_ZN4core6result13unwrap_failed17hcbcf07022a52acf3E+0x84>
c0021ffc:	00412503          	lw	a0,4(sp)
c0022000:	04a12a23          	sw	a0,84(sp)
c0022004:	00012583          	lw	a1,0(sp)
c0022008:	04b12823          	sw	a1,80(sp)
c002200c:	00c12603          	lw	a2,12(sp)
c0022010:	04c12623          	sw	a2,76(sp)
c0022014:	00812683          	lw	a3,8(sp)
c0022018:	04d12423          	sw	a3,72(sp)
c002201c:	c0024737          	lui	a4,0xc0024
c0022020:	5d470593          	addi	a1,a4,1492 # c00245d4 <bootstacktop+0xfff7f5d4>
c0022024:	03010513          	addi	a0,sp,48
c0022028:	04810693          	addi	a3,sp,72
c002202c:	00200713          	li	a4,2
c0022030:	00070613          	mv	a2,a4
c0022034:	00000097          	auipc	ra,0x0
c0022038:	c0c080e7          	jalr	-1012(ra) # c0021c40 <_ZN4core3fmt9Arguments6new_v117hc9a772a58b64bf16E>
c002203c:	0040006f          	j	c0022040 <_ZN4core6result13unwrap_failed17hcbcf07022a52acf3E+0xc8>
c0022040:	c0024537          	lui	a0,0xc0024
c0022044:	64c50593          	addi	a1,a0,1612 # c002464c <bootstacktop+0xfff7f64c>
c0022048:	03010513          	addi	a0,sp,48
c002204c:	fffff097          	auipc	ra,0xfffff
c0022050:	5f0080e7          	jalr	1520(ra) # c002163c <_ZN4core9panicking9panic_fmt17h6c27fc8975b1212eE>
c0022054:	00000097          	auipc	ra,0x0
c0022058:	884080e7          	jalr	-1916(ra) # c00218d8 <abort>

c002205c <_ZN4core3fmt5Write10write_char17h56a72a376bc971bcE>:
c002205c:	fd010113          	addi	sp,sp,-48
c0022060:	02112623          	sw	ra,44(sp)
c0022064:	00000613          	li	a2,0
c0022068:	02c12423          	sw	a2,40(sp)
c002206c:	02b12223          	sw	a1,36(sp)
c0022070:	02a12023          	sw	a0,32(sp)
c0022074:	02810613          	addi	a2,sp,40
c0022078:	00400693          	li	a3,4
c002207c:	00a12e23          	sw	a0,28(sp)
c0022080:	00058513          	mv	a0,a1
c0022084:	00b12c23          	sw	a1,24(sp)
c0022088:	00060593          	mv	a1,a2
c002208c:	00068613          	mv	a2,a3
c0022090:	00000097          	auipc	ra,0x0
c0022094:	230080e7          	jalr	560(ra) # c00222c0 <_ZN4core4char7methods22_$LT$impl$u20$char$GT$11encode_utf817h436e5656380eb7eeE>
c0022098:	01812603          	lw	a2,24(sp)
c002209c:	01c12683          	lw	a3,28(sp)
c00220a0:	01c12703          	lw	a4,28(sp)
c00220a4:	00c12a23          	sw	a2,20(sp)
c00220a8:	00d12823          	sw	a3,16(sp)
c00220ac:	00e12623          	sw	a4,12(sp)
c00220b0:	00b12423          	sw	a1,8(sp)
c00220b4:	00a12223          	sw	a0,4(sp)
c00220b8:	0040006f          	j	c00220bc <_ZN4core3fmt5Write10write_char17h56a72a376bc971bcE+0x60>
c00220bc:	01012503          	lw	a0,16(sp)
c00220c0:	00412583          	lw	a1,4(sp)
c00220c4:	00812603          	lw	a2,8(sp)
c00220c8:	00000097          	auipc	ra,0x0
c00220cc:	bd0080e7          	jalr	-1072(ra) # c0021c98 <_ZN60_$LT$rcore32..io..SerialPort$u20$as$u20$core..fmt..Write$GT$9write_str17h51eef6fc0424f22eE>
c00220d0:	00a12023          	sw	a0,0(sp)
c00220d4:	0040006f          	j	c00220d8 <_ZN4core3fmt5Write10write_char17h56a72a376bc971bcE+0x7c>
c00220d8:	00012503          	lw	a0,0(sp)
c00220dc:	02c12083          	lw	ra,44(sp)
c00220e0:	03010113          	addi	sp,sp,48
c00220e4:	00008067          	ret

c00220e8 <_ZN4core3fmt5Write9write_fmt17he0b1b2fd37fe8b5fE>:
c00220e8:	fc010113          	addi	sp,sp,-64
c00220ec:	02112e23          	sw	ra,60(sp)
c00220f0:	00a12e23          	sw	a0,28(sp)
c00220f4:	0145a603          	lw	a2,20(a1)
c00220f8:	02c12a23          	sw	a2,52(sp)
c00220fc:	0105a603          	lw	a2,16(a1)
c0022100:	02c12823          	sw	a2,48(sp)
c0022104:	00c5a603          	lw	a2,12(a1)
c0022108:	02c12623          	sw	a2,44(sp)
c002210c:	0085a603          	lw	a2,8(a1)
c0022110:	02c12423          	sw	a2,40(sp)
c0022114:	0045a603          	lw	a2,4(a1)
c0022118:	02c12223          	sw	a2,36(sp)
c002211c:	0005a603          	lw	a2,0(a1)
c0022120:	02c12023          	sw	a2,32(sp)
c0022124:	c0024637          	lui	a2,0xc0024
c0022128:	65c60613          	addi	a2,a2,1628 # c002465c <bootstacktop+0xfff7f65c>
c002212c:	01c10693          	addi	a3,sp,28
c0022130:	02010713          	addi	a4,sp,32
c0022134:	00a12c23          	sw	a0,24(sp)
c0022138:	00068513          	mv	a0,a3
c002213c:	00b12a23          	sw	a1,20(sp)
c0022140:	00060593          	mv	a1,a2
c0022144:	00070613          	mv	a2,a4
c0022148:	ffffe097          	auipc	ra,0xffffe
c002214c:	554080e7          	jalr	1364(ra) # c002069c <_ZN4core3fmt5write17h0d557cf506f03ea5E>
c0022150:	01412583          	lw	a1,20(sp)
c0022154:	01812603          	lw	a2,24(sp)
c0022158:	00b12823          	sw	a1,16(sp)
c002215c:	00c12623          	sw	a2,12(sp)
c0022160:	00a12423          	sw	a0,8(sp)
c0022164:	0040006f          	j	c0022168 <_ZN4core3fmt5Write9write_fmt17he0b1b2fd37fe8b5fE+0x80>
c0022168:	00812503          	lw	a0,8(sp)
c002216c:	03c12083          	lw	ra,60(sp)
c0022170:	04010113          	addi	sp,sp,64
c0022174:	00008067          	ret

c0022178 <_ZN50_$LT$$RF$mut$u20$W$u20$as$u20$core..fmt..Write$GT$10write_char17ha99fafc63450ee14E>:
c0022178:	fe010113          	addi	sp,sp,-32
c002217c:	00112e23          	sw	ra,28(sp)
c0022180:	00b12c23          	sw	a1,24(sp)
c0022184:	00a12a23          	sw	a0,20(sp)
c0022188:	00052603          	lw	a2,0(a0)
c002218c:	00a12823          	sw	a0,16(sp)
c0022190:	00060513          	mv	a0,a2
c0022194:	00b12623          	sw	a1,12(sp)
c0022198:	00000097          	auipc	ra,0x0
c002219c:	ec4080e7          	jalr	-316(ra) # c002205c <_ZN4core3fmt5Write10write_char17h56a72a376bc971bcE>
c00221a0:	00c12583          	lw	a1,12(sp)
c00221a4:	01012603          	lw	a2,16(sp)
c00221a8:	00b12423          	sw	a1,8(sp)
c00221ac:	00c12223          	sw	a2,4(sp)
c00221b0:	00a12023          	sw	a0,0(sp)
c00221b4:	0040006f          	j	c00221b8 <_ZN50_$LT$$RF$mut$u20$W$u20$as$u20$core..fmt..Write$GT$10write_char17ha99fafc63450ee14E+0x40>
c00221b8:	00012503          	lw	a0,0(sp)
c00221bc:	01c12083          	lw	ra,28(sp)
c00221c0:	02010113          	addi	sp,sp,32
c00221c4:	00008067          	ret

c00221c8 <_ZN50_$LT$$RF$mut$u20$W$u20$as$u20$core..fmt..Write$GT$9write_fmt17h91bb4704294ebb3aE>:
c00221c8:	fc010113          	addi	sp,sp,-64
c00221cc:	02112e23          	sw	ra,60(sp)
c00221d0:	00a12e23          	sw	a0,28(sp)
c00221d4:	00052603          	lw	a2,0(a0)
c00221d8:	0005a683          	lw	a3,0(a1)
c00221dc:	02d12023          	sw	a3,32(sp)
c00221e0:	0045a683          	lw	a3,4(a1)
c00221e4:	02d12223          	sw	a3,36(sp)
c00221e8:	0085a683          	lw	a3,8(a1)
c00221ec:	02d12423          	sw	a3,40(sp)
c00221f0:	00c5a683          	lw	a3,12(a1)
c00221f4:	02d12623          	sw	a3,44(sp)
c00221f8:	0105a683          	lw	a3,16(a1)
c00221fc:	02d12823          	sw	a3,48(sp)
c0022200:	0145a683          	lw	a3,20(a1)
c0022204:	02d12a23          	sw	a3,52(sp)
c0022208:	02010693          	addi	a3,sp,32
c002220c:	00a12c23          	sw	a0,24(sp)
c0022210:	00060513          	mv	a0,a2
c0022214:	00b12a23          	sw	a1,20(sp)
c0022218:	00068593          	mv	a1,a3
c002221c:	00000097          	auipc	ra,0x0
c0022220:	ecc080e7          	jalr	-308(ra) # c00220e8 <_ZN4core3fmt5Write9write_fmt17he0b1b2fd37fe8b5fE>
c0022224:	01412583          	lw	a1,20(sp)
c0022228:	01812603          	lw	a2,24(sp)
c002222c:	00b12823          	sw	a1,16(sp)
c0022230:	00c12623          	sw	a2,12(sp)
c0022234:	00a12423          	sw	a0,8(sp)
c0022238:	0040006f          	j	c002223c <_ZN50_$LT$$RF$mut$u20$W$u20$as$u20$core..fmt..Write$GT$9write_fmt17h91bb4704294ebb3aE+0x74>
c002223c:	00812503          	lw	a0,8(sp)
c0022240:	03c12083          	lw	ra,60(sp)
c0022244:	04010113          	addi	sp,sp,64
c0022248:	00008067          	ret

c002224c <_ZN50_$LT$$RF$mut$u20$W$u20$as$u20$core..fmt..Write$GT$9write_str17hc3fbccca4ff4e192E>:
c002224c:	fd010113          	addi	sp,sp,-48
c0022250:	02112623          	sw	ra,44(sp)
c0022254:	02c12223          	sw	a2,36(sp)
c0022258:	02b12023          	sw	a1,32(sp)
c002225c:	00a12e23          	sw	a0,28(sp)
c0022260:	00052683          	lw	a3,0(a0)
c0022264:	00a12c23          	sw	a0,24(sp)
c0022268:	00068513          	mv	a0,a3
c002226c:	00b12a23          	sw	a1,20(sp)
c0022270:	00c12823          	sw	a2,16(sp)
c0022274:	00000097          	auipc	ra,0x0
c0022278:	a24080e7          	jalr	-1500(ra) # c0021c98 <_ZN60_$LT$rcore32..io..SerialPort$u20$as$u20$core..fmt..Write$GT$9write_str17h51eef6fc0424f22eE>
c002227c:	01012583          	lw	a1,16(sp)
c0022280:	01412603          	lw	a2,20(sp)
c0022284:	01812683          	lw	a3,24(sp)
c0022288:	00b12623          	sw	a1,12(sp)
c002228c:	00c12423          	sw	a2,8(sp)
c0022290:	00d12223          	sw	a3,4(sp)
c0022294:	00a12023          	sw	a0,0(sp)
c0022298:	0040006f          	j	c002229c <_ZN50_$LT$$RF$mut$u20$W$u20$as$u20$core..fmt..Write$GT$9write_str17hc3fbccca4ff4e192E+0x50>
c002229c:	00012503          	lw	a0,0(sp)
c00222a0:	02c12083          	lw	ra,44(sp)
c00222a4:	03010113          	addi	sp,sp,48
c00222a8:	00008067          	ret

c00222ac <_ZN4core3ptr18real_drop_in_place17h858f4076bf1aa41cE>:
c00222ac:	ff010113          	addi	sp,sp,-16
c00222b0:	00a12623          	sw	a0,12(sp)
c00222b4:	00a12423          	sw	a0,8(sp)
c00222b8:	01010113          	addi	sp,sp,16
c00222bc:	00008067          	ret

c00222c0 <_ZN4core4char7methods22_$LT$impl$u20$char$GT$11encode_utf817h436e5656380eb7eeE>:
c00222c0:	ec010113          	addi	sp,sp,-320
c00222c4:	12112e23          	sw	ra,316(sp)
c00222c8:	0cc12a23          	sw	a2,212(sp)
c00222cc:	0cb12823          	sw	a1,208(sp)
c00222d0:	0ca12623          	sw	a0,204(sp)
c00222d4:	0ca12e23          	sw	a0,220(sp)
c00222d8:	00050693          	mv	a3,a0
c00222dc:	08000713          	li	a4,128
c00222e0:	0cc12423          	sw	a2,200(sp)
c00222e4:	0cb12223          	sw	a1,196(sp)
c00222e8:	0cd12023          	sw	a3,192(sp)
c00222ec:	00e56a63          	bltu	a0,a4,c0022300 <_ZN4core4char7methods22_$LT$impl$u20$char$GT$11encode_utf817h436e5656380eb7eeE+0x40>
c00222f0:	0040006f          	j	c00222f4 <_ZN4core4char7methods22_$LT$impl$u20$char$GT$11encode_utf817h436e5656380eb7eeE+0x34>
c00222f4:	00000513          	li	a0,0
c00222f8:	0ea102a3          	sb	a0,229(sp)
c00222fc:	01c0006f          	j	c0022318 <_ZN4core4char7methods22_$LT$impl$u20$char$GT$11encode_utf817h436e5656380eb7eeE+0x58>
c0022300:	0d412583          	lw	a1,212(sp)
c0022304:	0d012503          	lw	a0,208(sp)
c0022308:	00001097          	auipc	ra,0x1
c002230c:	e70080e7          	jalr	-400(ra) # c0023178 <_ZN4core5slice29_$LT$impl$u20$$u5b$T$u5d$$GT$8is_empty17hd3a65f8003ac3d91E>
c0022310:	0aa12e23          	sw	a0,188(sp)
c0022314:	0140006f          	j	c0022328 <_ZN4core4char7methods22_$LT$impl$u20$char$GT$11encode_utf817h436e5656380eb7eeE+0x68>
c0022318:	0e514503          	lbu	a0,229(sp)
c002231c:	00157513          	andi	a0,a0,1
c0022320:	00051c63          	bnez	a0,c0022338 <_ZN4core4char7methods22_$LT$impl$u20$char$GT$11encode_utf817h436e5656380eb7eeE+0x78>
c0022324:	0400006f          	j	c0022364 <_ZN4core4char7methods22_$LT$impl$u20$char$GT$11encode_utf817h436e5656380eb7eeE+0xa4>
c0022328:	0bc12503          	lw	a0,188(sp)
c002232c:	00154593          	xori	a1,a0,1
c0022330:	0eb102a3          	sb	a1,229(sp)
c0022334:	fe5ff06f          	j	c0022318 <_ZN4core4char7methods22_$LT$impl$u20$char$GT$11encode_utf817h436e5656380eb7eeE+0x58>
c0022338:	0dc12503          	lw	a0,220(sp)
c002233c:	0d412583          	lw	a1,212(sp)
c0022340:	0d012603          	lw	a2,208(sp)
c0022344:	00000693          	li	a3,0
c0022348:	0aa12c23          	sw	a0,184(sp)
c002234c:	00060513          	mv	a0,a2
c0022350:	00068613          	mv	a2,a3
c0022354:	00001097          	auipc	ra,0x1
c0022358:	d44080e7          	jalr	-700(ra) # c0023098 <_ZN4core5slice29_$LT$impl$u20$$u5b$T$u5d$$GT$17get_unchecked_mut17hb4e22926e0aa5a08E>
c002235c:	0aa12a23          	sw	a0,180(sp)
c0022360:	0180006f          	j	c0022378 <_ZN4core4char7methods22_$LT$impl$u20$char$GT$11encode_utf817h436e5656380eb7eeE+0xb8>
c0022364:	0dc12503          	lw	a0,220(sp)
c0022368:	00b55513          	srli	a0,a0,0xb
c002236c:	00000593          	li	a1,0
c0022370:	02b50663          	beq	a0,a1,c002239c <_ZN4core4char7methods22_$LT$impl$u20$char$GT$11encode_utf817h436e5656380eb7eeE+0xdc>
c0022374:	01c0006f          	j	c0022390 <_ZN4core4char7methods22_$LT$impl$u20$char$GT$11encode_utf817h436e5656380eb7eeE+0xd0>
c0022378:	0b812503          	lw	a0,184(sp)
c002237c:	0b412583          	lw	a1,180(sp)
c0022380:	00a58023          	sb	a0,0(a1)
c0022384:	00100613          	li	a2,1
c0022388:	0ec12023          	sw	a2,224(sp)
c002238c:	4b40006f          	j	c0022840 <_ZN4core4char7methods22_$LT$impl$u20$char$GT$11encode_utf817h436e5656380eb7eeE+0x580>
c0022390:	00000513          	li	a0,0
c0022394:	0ea10323          	sb	a0,230(sp)
c0022398:	01c0006f          	j	c00223b4 <_ZN4core4char7methods22_$LT$impl$u20$char$GT$11encode_utf817h436e5656380eb7eeE+0xf4>
c002239c:	0d412583          	lw	a1,212(sp)
c00223a0:	0d012503          	lw	a0,208(sp)
c00223a4:	00000097          	auipc	ra,0x0
c00223a8:	6d0080e7          	jalr	1744(ra) # c0022a74 <_ZN4core5slice29_$LT$impl$u20$$u5b$T$u5d$$GT$3len17hea624aafeac3cb91E>
c00223ac:	0aa12823          	sw	a0,176(sp)
c00223b0:	0140006f          	j	c00223c4 <_ZN4core4char7methods22_$LT$impl$u20$char$GT$11encode_utf817h436e5656380eb7eeE+0x104>
c00223b4:	0e614503          	lbu	a0,230(sp)
c00223b8:	00157513          	andi	a0,a0,1
c00223bc:	00051e63          	bnez	a0,c00223d8 <_ZN4core4char7methods22_$LT$impl$u20$char$GT$11encode_utf817h436e5656380eb7eeE+0x118>
c00223c0:	0540006f          	j	c0022414 <_ZN4core4char7methods22_$LT$impl$u20$char$GT$11encode_utf817h436e5656380eb7eeE+0x154>
c00223c4:	00100513          	li	a0,1
c00223c8:	0b012583          	lw	a1,176(sp)
c00223cc:	00b53533          	sltu	a0,a0,a1
c00223d0:	0ea10323          	sb	a0,230(sp)
c00223d4:	fe1ff06f          	j	c00223b4 <_ZN4core4char7methods22_$LT$impl$u20$char$GT$11encode_utf817h436e5656380eb7eeE+0xf4>
c00223d8:	0dc12503          	lw	a0,220(sp)
c00223dc:	0d412583          	lw	a1,212(sp)
c00223e0:	0d012603          	lw	a2,208(sp)
c00223e4:	00000693          	li	a3,0
c00223e8:	0aa12623          	sw	a0,172(sp)
c00223ec:	00060513          	mv	a0,a2
c00223f0:	00068613          	mv	a2,a3
c00223f4:	00001097          	auipc	ra,0x1
c00223f8:	ca4080e7          	jalr	-860(ra) # c0023098 <_ZN4core5slice29_$LT$impl$u20$$u5b$T$u5d$$GT$17get_unchecked_mut17hb4e22926e0aa5a08E>
c00223fc:	0ac12583          	lw	a1,172(sp)
c0022400:	0065d593          	srli	a1,a1,0x6
c0022404:	01f5f593          	andi	a1,a1,31
c0022408:	0aa12423          	sw	a0,168(sp)
c002240c:	0ab12223          	sw	a1,164(sp)
c0022410:	0140006f          	j	c0022424 <_ZN4core4char7methods22_$LT$impl$u20$char$GT$11encode_utf817h436e5656380eb7eeE+0x164>
c0022414:	00000513          	li	a0,0
c0022418:	0de15583          	lhu	a1,222(sp)
c002241c:	06a58a63          	beq	a1,a0,c0022490 <_ZN4core4char7methods22_$LT$impl$u20$char$GT$11encode_utf817h436e5656380eb7eeE+0x1d0>
c0022420:	0640006f          	j	c0022484 <_ZN4core4char7methods22_$LT$impl$u20$char$GT$11encode_utf817h436e5656380eb7eeE+0x1c4>
c0022424:	0a412503          	lw	a0,164(sp)
c0022428:	0c056593          	ori	a1,a0,192
c002242c:	0a812603          	lw	a2,168(sp)
c0022430:	00b60023          	sb	a1,0(a2)
c0022434:	0dc12583          	lw	a1,220(sp)
c0022438:	0d412683          	lw	a3,212(sp)
c002243c:	0d012503          	lw	a0,208(sp)
c0022440:	00100613          	li	a2,1
c0022444:	0ab12023          	sw	a1,160(sp)
c0022448:	00068593          	mv	a1,a3
c002244c:	00001097          	auipc	ra,0x1
c0022450:	c4c080e7          	jalr	-948(ra) # c0023098 <_ZN4core5slice29_$LT$impl$u20$$u5b$T$u5d$$GT$17get_unchecked_mut17hb4e22926e0aa5a08E>
c0022454:	0a012583          	lw	a1,160(sp)
c0022458:	03f5f593          	andi	a1,a1,63
c002245c:	08b12e23          	sw	a1,156(sp)
c0022460:	08a12c23          	sw	a0,152(sp)
c0022464:	0040006f          	j	c0022468 <_ZN4core4char7methods22_$LT$impl$u20$char$GT$11encode_utf817h436e5656380eb7eeE+0x1a8>
c0022468:	09c12503          	lw	a0,156(sp)
c002246c:	08056593          	ori	a1,a0,128
c0022470:	09812603          	lw	a2,152(sp)
c0022474:	00b60023          	sb	a1,0(a2)
c0022478:	00200593          	li	a1,2
c002247c:	0eb12023          	sw	a1,224(sp)
c0022480:	3bc0006f          	j	c002283c <_ZN4core4char7methods22_$LT$impl$u20$char$GT$11encode_utf817h436e5656380eb7eeE+0x57c>
c0022484:	00000513          	li	a0,0
c0022488:	0ea103a3          	sb	a0,231(sp)
c002248c:	01c0006f          	j	c00224a8 <_ZN4core4char7methods22_$LT$impl$u20$char$GT$11encode_utf817h436e5656380eb7eeE+0x1e8>
c0022490:	0d412583          	lw	a1,212(sp)
c0022494:	0d012503          	lw	a0,208(sp)
c0022498:	00000097          	auipc	ra,0x0
c002249c:	5dc080e7          	jalr	1500(ra) # c0022a74 <_ZN4core5slice29_$LT$impl$u20$$u5b$T$u5d$$GT$3len17hea624aafeac3cb91E>
c00224a0:	08a12a23          	sw	a0,148(sp)
c00224a4:	0140006f          	j	c00224b8 <_ZN4core4char7methods22_$LT$impl$u20$char$GT$11encode_utf817h436e5656380eb7eeE+0x1f8>
c00224a8:	0e714503          	lbu	a0,231(sp)
c00224ac:	00157513          	andi	a0,a0,1
c00224b0:	00051e63          	bnez	a0,c00224cc <_ZN4core4char7methods22_$LT$impl$u20$char$GT$11encode_utf817h436e5656380eb7eeE+0x20c>
c00224b4:	0540006f          	j	c0022508 <_ZN4core4char7methods22_$LT$impl$u20$char$GT$11encode_utf817h436e5656380eb7eeE+0x248>
c00224b8:	00200513          	li	a0,2
c00224bc:	09412583          	lw	a1,148(sp)
c00224c0:	00b53533          	sltu	a0,a0,a1
c00224c4:	0ea103a3          	sb	a0,231(sp)
c00224c8:	fe1ff06f          	j	c00224a8 <_ZN4core4char7methods22_$LT$impl$u20$char$GT$11encode_utf817h436e5656380eb7eeE+0x1e8>
c00224cc:	0dc12503          	lw	a0,220(sp)
c00224d0:	0d412583          	lw	a1,212(sp)
c00224d4:	0d012603          	lw	a2,208(sp)
c00224d8:	00000693          	li	a3,0
c00224dc:	08a12823          	sw	a0,144(sp)
c00224e0:	00060513          	mv	a0,a2
c00224e4:	00068613          	mv	a2,a3
c00224e8:	00001097          	auipc	ra,0x1
c00224ec:	bb0080e7          	jalr	-1104(ra) # c0023098 <_ZN4core5slice29_$LT$impl$u20$$u5b$T$u5d$$GT$17get_unchecked_mut17hb4e22926e0aa5a08E>
c00224f0:	09012583          	lw	a1,144(sp)
c00224f4:	00c5d593          	srli	a1,a1,0xc
c00224f8:	00f5f593          	andi	a1,a1,15
c00224fc:	08a12623          	sw	a0,140(sp)
c0022500:	08b12423          	sw	a1,136(sp)
c0022504:	01c0006f          	j	c0022520 <_ZN4core4char7methods22_$LT$impl$u20$char$GT$11encode_utf817h436e5656380eb7eeE+0x260>
c0022508:	0d412583          	lw	a1,212(sp)
c002250c:	0d012503          	lw	a0,208(sp)
c0022510:	00000097          	auipc	ra,0x0
c0022514:	564080e7          	jalr	1380(ra) # c0022a74 <_ZN4core5slice29_$LT$impl$u20$$u5b$T$u5d$$GT$3len17hea624aafeac3cb91E>
c0022518:	08a12223          	sw	a0,132(sp)
c002251c:	0ac0006f          	j	c00225c8 <_ZN4core4char7methods22_$LT$impl$u20$char$GT$11encode_utf817h436e5656380eb7eeE+0x308>
c0022520:	08812503          	lw	a0,136(sp)
c0022524:	0e056593          	ori	a1,a0,224
c0022528:	08c12603          	lw	a2,140(sp)
c002252c:	00b60023          	sb	a1,0(a2)
c0022530:	0dc12583          	lw	a1,220(sp)
c0022534:	0d412683          	lw	a3,212(sp)
c0022538:	0d012503          	lw	a0,208(sp)
c002253c:	00100613          	li	a2,1
c0022540:	08b12023          	sw	a1,128(sp)
c0022544:	00068593          	mv	a1,a3
c0022548:	00001097          	auipc	ra,0x1
c002254c:	b50080e7          	jalr	-1200(ra) # c0023098 <_ZN4core5slice29_$LT$impl$u20$$u5b$T$u5d$$GT$17get_unchecked_mut17hb4e22926e0aa5a08E>
c0022550:	08012583          	lw	a1,128(sp)
c0022554:	0065d593          	srli	a1,a1,0x6
c0022558:	03f5f593          	andi	a1,a1,63
c002255c:	06a12e23          	sw	a0,124(sp)
c0022560:	06b12c23          	sw	a1,120(sp)
c0022564:	0040006f          	j	c0022568 <_ZN4core4char7methods22_$LT$impl$u20$char$GT$11encode_utf817h436e5656380eb7eeE+0x2a8>
c0022568:	07812503          	lw	a0,120(sp)
c002256c:	08056593          	ori	a1,a0,128
c0022570:	07c12603          	lw	a2,124(sp)
c0022574:	00b60023          	sb	a1,0(a2)
c0022578:	0dc12583          	lw	a1,220(sp)
c002257c:	0d412683          	lw	a3,212(sp)
c0022580:	0d012503          	lw	a0,208(sp)
c0022584:	00200613          	li	a2,2
c0022588:	06b12a23          	sw	a1,116(sp)
c002258c:	00068593          	mv	a1,a3
c0022590:	00001097          	auipc	ra,0x1
c0022594:	b08080e7          	jalr	-1272(ra) # c0023098 <_ZN4core5slice29_$LT$impl$u20$$u5b$T$u5d$$GT$17get_unchecked_mut17hb4e22926e0aa5a08E>
c0022598:	07412583          	lw	a1,116(sp)
c002259c:	03f5f593          	andi	a1,a1,63
c00225a0:	06b12823          	sw	a1,112(sp)
c00225a4:	06a12623          	sw	a0,108(sp)
c00225a8:	0040006f          	j	c00225ac <_ZN4core4char7methods22_$LT$impl$u20$char$GT$11encode_utf817h436e5656380eb7eeE+0x2ec>
c00225ac:	07012503          	lw	a0,112(sp)
c00225b0:	08056593          	ori	a1,a0,128
c00225b4:	06c12603          	lw	a2,108(sp)
c00225b8:	00b60023          	sb	a1,0(a2)
c00225bc:	00300593          	li	a1,3
c00225c0:	0eb12023          	sw	a1,224(sp)
c00225c4:	2740006f          	j	c0022838 <_ZN4core4char7methods22_$LT$impl$u20$char$GT$11encode_utf817h436e5656380eb7eeE+0x578>
c00225c8:	00400513          	li	a0,4
c00225cc:	08412583          	lw	a1,132(sp)
c00225d0:	04a5e263          	bltu	a1,a0,c0022614 <_ZN4core4char7methods22_$LT$impl$u20$char$GT$11encode_utf817h436e5656380eb7eeE+0x354>
c00225d4:	0040006f          	j	c00225d8 <_ZN4core4char7methods22_$LT$impl$u20$char$GT$11encode_utf817h436e5656380eb7eeE+0x318>
c00225d8:	0dc12503          	lw	a0,220(sp)
c00225dc:	0d412583          	lw	a1,212(sp)
c00225e0:	0d012603          	lw	a2,208(sp)
c00225e4:	00000693          	li	a3,0
c00225e8:	06a12423          	sw	a0,104(sp)
c00225ec:	00060513          	mv	a0,a2
c00225f0:	00068613          	mv	a2,a3
c00225f4:	00001097          	auipc	ra,0x1
c00225f8:	aa4080e7          	jalr	-1372(ra) # c0023098 <_ZN4core5slice29_$LT$impl$u20$$u5b$T$u5d$$GT$17get_unchecked_mut17hb4e22926e0aa5a08E>
c00225fc:	06812583          	lw	a1,104(sp)
c0022600:	0125d593          	srli	a1,a1,0x12
c0022604:	0075f593          	andi	a1,a1,7
c0022608:	06a12223          	sw	a0,100(sp)
c002260c:	06b12023          	sw	a1,96(sp)
c0022610:	0180006f          	j	c0022628 <_ZN4core4char7methods22_$LT$impl$u20$char$GT$11encode_utf817h436e5656380eb7eeE+0x368>
c0022614:	0dc12503          	lw	a0,220(sp)
c0022618:	00001097          	auipc	ra,0x1
c002261c:	ebc080e7          	jalr	-324(ra) # c00234d4 <_ZN4core4char7convert18from_u32_unchecked17h8b3ad2aa72b738efE>
c0022620:	04a12e23          	sw	a0,92(sp)
c0022624:	0f40006f          	j	c0022718 <_ZN4core4char7methods22_$LT$impl$u20$char$GT$11encode_utf817h436e5656380eb7eeE+0x458>
c0022628:	06012503          	lw	a0,96(sp)
c002262c:	0f056593          	ori	a1,a0,240
c0022630:	06412603          	lw	a2,100(sp)
c0022634:	00b60023          	sb	a1,0(a2)
c0022638:	0dc12583          	lw	a1,220(sp)
c002263c:	0d412683          	lw	a3,212(sp)
c0022640:	0d012503          	lw	a0,208(sp)
c0022644:	00100613          	li	a2,1
c0022648:	04b12c23          	sw	a1,88(sp)
c002264c:	00068593          	mv	a1,a3
c0022650:	00001097          	auipc	ra,0x1
c0022654:	a48080e7          	jalr	-1464(ra) # c0023098 <_ZN4core5slice29_$LT$impl$u20$$u5b$T$u5d$$GT$17get_unchecked_mut17hb4e22926e0aa5a08E>
c0022658:	05812583          	lw	a1,88(sp)
c002265c:	00c5d593          	srli	a1,a1,0xc
c0022660:	03f5f593          	andi	a1,a1,63
c0022664:	04a12a23          	sw	a0,84(sp)
c0022668:	04b12823          	sw	a1,80(sp)
c002266c:	0040006f          	j	c0022670 <_ZN4core4char7methods22_$LT$impl$u20$char$GT$11encode_utf817h436e5656380eb7eeE+0x3b0>
c0022670:	05012503          	lw	a0,80(sp)
c0022674:	08056593          	ori	a1,a0,128
c0022678:	05412603          	lw	a2,84(sp)
c002267c:	00b60023          	sb	a1,0(a2)
c0022680:	0dc12583          	lw	a1,220(sp)
c0022684:	0d412683          	lw	a3,212(sp)
c0022688:	0d012503          	lw	a0,208(sp)
c002268c:	00200613          	li	a2,2
c0022690:	04b12623          	sw	a1,76(sp)
c0022694:	00068593          	mv	a1,a3
c0022698:	00001097          	auipc	ra,0x1
c002269c:	a00080e7          	jalr	-1536(ra) # c0023098 <_ZN4core5slice29_$LT$impl$u20$$u5b$T$u5d$$GT$17get_unchecked_mut17hb4e22926e0aa5a08E>
c00226a0:	04c12583          	lw	a1,76(sp)
c00226a4:	0065d593          	srli	a1,a1,0x6
c00226a8:	03f5f593          	andi	a1,a1,63
c00226ac:	04a12423          	sw	a0,72(sp)
c00226b0:	04b12223          	sw	a1,68(sp)
c00226b4:	0040006f          	j	c00226b8 <_ZN4core4char7methods22_$LT$impl$u20$char$GT$11encode_utf817h436e5656380eb7eeE+0x3f8>
c00226b8:	04412503          	lw	a0,68(sp)
c00226bc:	08056593          	ori	a1,a0,128
c00226c0:	04812603          	lw	a2,72(sp)
c00226c4:	00b60023          	sb	a1,0(a2)
c00226c8:	0dc12583          	lw	a1,220(sp)
c00226cc:	0d412683          	lw	a3,212(sp)
c00226d0:	0d012503          	lw	a0,208(sp)
c00226d4:	00300613          	li	a2,3
c00226d8:	04b12023          	sw	a1,64(sp)
c00226dc:	00068593          	mv	a1,a3
c00226e0:	00001097          	auipc	ra,0x1
c00226e4:	9b8080e7          	jalr	-1608(ra) # c0023098 <_ZN4core5slice29_$LT$impl$u20$$u5b$T$u5d$$GT$17get_unchecked_mut17hb4e22926e0aa5a08E>
c00226e8:	04012583          	lw	a1,64(sp)
c00226ec:	03f5f593          	andi	a1,a1,63
c00226f0:	02b12e23          	sw	a1,60(sp)
c00226f4:	02a12c23          	sw	a0,56(sp)
c00226f8:	0040006f          	j	c00226fc <_ZN4core4char7methods22_$LT$impl$u20$char$GT$11encode_utf817h436e5656380eb7eeE+0x43c>
c00226fc:	03c12503          	lw	a0,60(sp)
c0022700:	08056593          	ori	a1,a0,128
c0022704:	03812603          	lw	a2,56(sp)
c0022708:	00b60023          	sb	a1,0(a2)
c002270c:	00400593          	li	a1,4
c0022710:	0eb12023          	sw	a1,224(sp)
c0022714:	1240006f          	j	c0022838 <_ZN4core4char7methods22_$LT$impl$u20$char$GT$11encode_utf817h436e5656380eb7eeE+0x578>
c0022718:	05c12503          	lw	a0,92(sp)
c002271c:	00000097          	auipc	ra,0x0
c0022720:	184080e7          	jalr	388(ra) # c00228a0 <_ZN4core4char7methods22_$LT$impl$u20$char$GT$8len_utf817h8f57a6da49a33877E>
c0022724:	12a12223          	sw	a0,292(sp)
c0022728:	0040006f          	j	c002272c <_ZN4core4char7methods22_$LT$impl$u20$char$GT$11encode_utf817h436e5656380eb7eeE+0x46c>
c002272c:	0d412583          	lw	a1,212(sp)
c0022730:	0d012503          	lw	a0,208(sp)
c0022734:	00000097          	auipc	ra,0x0
c0022738:	340080e7          	jalr	832(ra) # c0022a74 <_ZN4core5slice29_$LT$impl$u20$$u5b$T$u5d$$GT$3len17hea624aafeac3cb91E>
c002273c:	12a12423          	sw	a0,296(sp)
c0022740:	0040006f          	j	c0022744 <_ZN4core4char7methods22_$LT$impl$u20$char$GT$11encode_utf817h436e5656380eb7eeE+0x484>
c0022744:	0dc10513          	addi	a0,sp,220
c0022748:	10a12e23          	sw	a0,284(sp)
c002274c:	12a12823          	sw	a0,304(sp)
c0022750:	12810513          	addi	a0,sp,296
c0022754:	12a12023          	sw	a0,288(sp)
c0022758:	12a12a23          	sw	a0,308(sp)
c002275c:	12410513          	addi	a0,sp,292
c0022760:	10a12c23          	sw	a0,280(sp)
c0022764:	12a12623          	sw	a0,300(sp)
c0022768:	c00215b7          	lui	a1,0xc0021
c002276c:	33c58593          	addi	a1,a1,828 # c002133c <bootstacktop+0xfff7c33c>
c0022770:	ffffe097          	auipc	ra,0xffffe
c0022774:	d20080e7          	jalr	-736(ra) # c0020490 <_ZN4core3fmt10ArgumentV13new17h1e2051a84d1ba9a2E>
c0022778:	02b12a23          	sw	a1,52(sp)
c002277c:	02a12823          	sw	a0,48(sp)
c0022780:	0040006f          	j	c0022784 <_ZN4core4char7methods22_$LT$impl$u20$char$GT$11encode_utf817h436e5656380eb7eeE+0x4c4>
c0022784:	13012503          	lw	a0,304(sp)
c0022788:	c00215b7          	lui	a1,0xc0021
c002278c:	23458593          	addi	a1,a1,564 # c0021234 <bootstacktop+0xfff7c234>
c0022790:	ffffe097          	auipc	ra,0xffffe
c0022794:	d54080e7          	jalr	-684(ra) # c00204e4 <_ZN4core3fmt10ArgumentV13new17h2724bddd433b3160E>
c0022798:	02b12623          	sw	a1,44(sp)
c002279c:	02a12423          	sw	a0,40(sp)
c00227a0:	0040006f          	j	c00227a4 <_ZN4core4char7methods22_$LT$impl$u20$char$GT$11encode_utf817h436e5656380eb7eeE+0x4e4>
c00227a4:	13412503          	lw	a0,308(sp)
c00227a8:	c00215b7          	lui	a1,0xc0021
c00227ac:	33c58593          	addi	a1,a1,828 # c002133c <bootstacktop+0xfff7c33c>
c00227b0:	ffffe097          	auipc	ra,0xffffe
c00227b4:	ce0080e7          	jalr	-800(ra) # c0020490 <_ZN4core3fmt10ArgumentV13new17h1e2051a84d1ba9a2E>
c00227b8:	02b12223          	sw	a1,36(sp)
c00227bc:	02a12023          	sw	a0,32(sp)
c00227c0:	0040006f          	j	c00227c4 <_ZN4core4char7methods22_$LT$impl$u20$char$GT$11encode_utf817h436e5656380eb7eeE+0x504>
c00227c4:	02412503          	lw	a0,36(sp)
c00227c8:	10a12a23          	sw	a0,276(sp)
c00227cc:	02012583          	lw	a1,32(sp)
c00227d0:	10b12823          	sw	a1,272(sp)
c00227d4:	02c12603          	lw	a2,44(sp)
c00227d8:	10c12623          	sw	a2,268(sp)
c00227dc:	02812683          	lw	a3,40(sp)
c00227e0:	10d12423          	sw	a3,264(sp)
c00227e4:	03412703          	lw	a4,52(sp)
c00227e8:	10e12223          	sw	a4,260(sp)
c00227ec:	03012783          	lw	a5,48(sp)
c00227f0:	10f12023          	sw	a5,256(sp)
c00227f4:	c0024837          	lui	a6,0xc0024
c00227f8:	6b080593          	addi	a1,a6,1712 # c00246b0 <bootstacktop+0xfff7f6b0>
c00227fc:	0e810513          	addi	a0,sp,232
c0022800:	10010693          	addi	a3,sp,256
c0022804:	00300813          	li	a6,3
c0022808:	00080613          	mv	a2,a6
c002280c:	00080713          	mv	a4,a6
c0022810:	fffff097          	auipc	ra,0xfffff
c0022814:	430080e7          	jalr	1072(ra) # c0021c40 <_ZN4core3fmt9Arguments6new_v117hc9a772a58b64bf16E>
c0022818:	0040006f          	j	c002281c <_ZN4core4char7methods22_$LT$impl$u20$char$GT$11encode_utf817h436e5656380eb7eeE+0x55c>
c002281c:	c0024537          	lui	a0,0xc0024
c0022820:	73850593          	addi	a1,a0,1848 # c0024738 <bootstacktop+0xfff7f738>
c0022824:	0e810513          	addi	a0,sp,232
c0022828:	fffff097          	auipc	ra,0xfffff
c002282c:	e14080e7          	jalr	-492(ra) # c002163c <_ZN4core9panicking9panic_fmt17h6c27fc8975b1212eE>
c0022830:	fffff097          	auipc	ra,0xfffff
c0022834:	0a8080e7          	jalr	168(ra) # c00218d8 <abort>
c0022838:	0040006f          	j	c002283c <_ZN4core4char7methods22_$LT$impl$u20$char$GT$11encode_utf817h436e5656380eb7eeE+0x57c>
c002283c:	0040006f          	j	c0022840 <_ZN4core4char7methods22_$LT$impl$u20$char$GT$11encode_utf817h436e5656380eb7eeE+0x580>
c0022840:	0e012503          	lw	a0,224(sp)
c0022844:	12a12c23          	sw	a0,312(sp)
c0022848:	0d412583          	lw	a1,212(sp)
c002284c:	0d012603          	lw	a2,208(sp)
c0022850:	00a12e23          	sw	a0,28(sp)
c0022854:	00060513          	mv	a0,a2
c0022858:	01c12603          	lw	a2,28(sp)
c002285c:	00001097          	auipc	ra,0x1
c0022860:	8a8080e7          	jalr	-1880(ra) # c0023104 <_ZN4core5slice29_$LT$impl$u20$$u5b$T$u5d$$GT$17get_unchecked_mut17hc2ef277a128c643dE>
c0022864:	00b12c23          	sw	a1,24(sp)
c0022868:	00a12a23          	sw	a0,20(sp)
c002286c:	0040006f          	j	c0022870 <_ZN4core4char7methods22_$LT$impl$u20$char$GT$11encode_utf817h436e5656380eb7eeE+0x5b0>
c0022870:	01412503          	lw	a0,20(sp)
c0022874:	01812583          	lw	a1,24(sp)
c0022878:	00000097          	auipc	ra,0x0
c002287c:	144080e7          	jalr	324(ra) # c00229bc <_ZN4core3str23from_utf8_unchecked_mut17h7d6b2ac67ccc8788E>
c0022880:	00b12823          	sw	a1,16(sp)
c0022884:	00a12623          	sw	a0,12(sp)
c0022888:	0040006f          	j	c002288c <_ZN4core4char7methods22_$LT$impl$u20$char$GT$11encode_utf817h436e5656380eb7eeE+0x5cc>
c002288c:	00c12503          	lw	a0,12(sp)
c0022890:	01012583          	lw	a1,16(sp)
c0022894:	13c12083          	lw	ra,316(sp)
c0022898:	14010113          	addi	sp,sp,320
c002289c:	00008067          	ret

c00228a0 <_ZN4core4char7methods22_$LT$impl$u20$char$GT$8len_utf817h8f57a6da49a33877E>:
c00228a0:	ff010113          	addi	sp,sp,-16
c00228a4:	00a12623          	sw	a0,12(sp)
c00228a8:	00a12223          	sw	a0,4(sp)
c00228ac:	00050593          	mv	a1,a0
c00228b0:	07f00613          	li	a2,127
c00228b4:	00b12023          	sw	a1,0(sp)
c00228b8:	00a66a63          	bltu	a2,a0,c00228cc <_ZN4core4char7methods22_$LT$impl$u20$char$GT$8len_utf817h8f57a6da49a33877E+0x2c>
c00228bc:	0040006f          	j	c00228c0 <_ZN4core4char7methods22_$LT$impl$u20$char$GT$8len_utf817h8f57a6da49a33877E+0x20>
c00228c0:	00100513          	li	a0,1
c00228c4:	00a12423          	sw	a0,8(sp)
c00228c8:	0500006f          	j	c0022918 <_ZN4core4char7methods22_$LT$impl$u20$char$GT$8len_utf817h8f57a6da49a33877E+0x78>
c00228cc:	00c12503          	lw	a0,12(sp)
c00228d0:	7ff00593          	li	a1,2047
c00228d4:	00a5ea63          	bltu	a1,a0,c00228e8 <_ZN4core4char7methods22_$LT$impl$u20$char$GT$8len_utf817h8f57a6da49a33877E+0x48>
c00228d8:	0040006f          	j	c00228dc <_ZN4core4char7methods22_$LT$impl$u20$char$GT$8len_utf817h8f57a6da49a33877E+0x3c>
c00228dc:	00200513          	li	a0,2
c00228e0:	00a12423          	sw	a0,8(sp)
c00228e4:	0300006f          	j	c0022914 <_ZN4core4char7methods22_$LT$impl$u20$char$GT$8len_utf817h8f57a6da49a33877E+0x74>
c00228e8:	00000513          	li	a0,0
c00228ec:	00e15583          	lhu	a1,14(sp)
c00228f0:	00a59a63          	bne	a1,a0,c0022904 <_ZN4core4char7methods22_$LT$impl$u20$char$GT$8len_utf817h8f57a6da49a33877E+0x64>
c00228f4:	0040006f          	j	c00228f8 <_ZN4core4char7methods22_$LT$impl$u20$char$GT$8len_utf817h8f57a6da49a33877E+0x58>
c00228f8:	00300513          	li	a0,3
c00228fc:	00a12423          	sw	a0,8(sp)
c0022900:	0100006f          	j	c0022910 <_ZN4core4char7methods22_$LT$impl$u20$char$GT$8len_utf817h8f57a6da49a33877E+0x70>
c0022904:	00400513          	li	a0,4
c0022908:	00a12423          	sw	a0,8(sp)
c002290c:	0040006f          	j	c0022910 <_ZN4core4char7methods22_$LT$impl$u20$char$GT$8len_utf817h8f57a6da49a33877E+0x70>
c0022910:	0040006f          	j	c0022914 <_ZN4core4char7methods22_$LT$impl$u20$char$GT$8len_utf817h8f57a6da49a33877E+0x74>
c0022914:	0040006f          	j	c0022918 <_ZN4core4char7methods22_$LT$impl$u20$char$GT$8len_utf817h8f57a6da49a33877E+0x78>
c0022918:	00812503          	lw	a0,8(sp)
c002291c:	01010113          	addi	sp,sp,16
c0022920:	00008067          	ret

c0022924 <_ZN4core3str21_$LT$impl$u20$str$GT$5bytes17h2a7ab93c675da6d9E>:
c0022924:	fb010113          	addi	sp,sp,-80
c0022928:	04112623          	sw	ra,76(sp)
c002292c:	02b12623          	sw	a1,44(sp)
c0022930:	02b12e23          	sw	a1,60(sp)
c0022934:	04b12223          	sw	a1,68(sp)
c0022938:	00058613          	mv	a2,a1
c002293c:	02a12423          	sw	a0,40(sp)
c0022940:	02a12c23          	sw	a0,56(sp)
c0022944:	04a12023          	sw	a0,64(sp)
c0022948:	00050693          	mv	a3,a0
c002294c:	02c12223          	sw	a2,36(sp)
c0022950:	02b12023          	sw	a1,32(sp)
c0022954:	00d12e23          	sw	a3,28(sp)
c0022958:	00a12c23          	sw	a0,24(sp)
c002295c:	0040006f          	j	c0022960 <_ZN4core3str21_$LT$impl$u20$str$GT$5bytes17h2a7ab93c675da6d9E+0x3c>
c0022960:	01c12503          	lw	a0,28(sp)
c0022964:	02412583          	lw	a1,36(sp)
c0022968:	00000097          	auipc	ra,0x0
c002296c:	138080e7          	jalr	312(ra) # c0022aa0 <_ZN4core5slice29_$LT$impl$u20$$u5b$T$u5d$$GT$4iter17h5c5470cd231d1f56E>
c0022970:	00b12a23          	sw	a1,20(sp)
c0022974:	00a12823          	sw	a0,16(sp)
c0022978:	0040006f          	j	c002297c <_ZN4core3str21_$LT$impl$u20$str$GT$5bytes17h2a7ab93c675da6d9E+0x58>
c002297c:	01012503          	lw	a0,16(sp)
c0022980:	01412583          	lw	a1,20(sp)
c0022984:	00000097          	auipc	ra,0x0
c0022988:	0a0080e7          	jalr	160(ra) # c0022a24 <_ZN4core4iter6traits8iterator8Iterator6cloned17h21379a1e19d9604cE>
c002298c:	00b12623          	sw	a1,12(sp)
c0022990:	00a12423          	sw	a0,8(sp)
c0022994:	0040006f          	j	c0022998 <_ZN4core3str21_$LT$impl$u20$str$GT$5bytes17h2a7ab93c675da6d9E+0x74>
c0022998:	00c12503          	lw	a0,12(sp)
c002299c:	02a12a23          	sw	a0,52(sp)
c00229a0:	00812583          	lw	a1,8(sp)
c00229a4:	02b12823          	sw	a1,48(sp)
c00229a8:	00058513          	mv	a0,a1
c00229ac:	00c12583          	lw	a1,12(sp)
c00229b0:	04c12083          	lw	ra,76(sp)
c00229b4:	05010113          	addi	sp,sp,80
c00229b8:	00008067          	ret

c00229bc <_ZN4core3str23from_utf8_unchecked_mut17h7d6b2ac67ccc8788E>:
c00229bc:	ff010113          	addi	sp,sp,-16
c00229c0:	00b12623          	sw	a1,12(sp)
c00229c4:	00a12423          	sw	a0,8(sp)
c00229c8:	00058613          	mv	a2,a1
c00229cc:	00050693          	mv	a3,a0
c00229d0:	00c12223          	sw	a2,4(sp)
c00229d4:	00d12023          	sw	a3,0(sp)
c00229d8:	01010113          	addi	sp,sp,16
c00229dc:	00008067          	ret

c00229e0 <_ZN89_$LT$core..str..Bytes$LT$$u27$_$GT$$u20$as$u20$core..iter..traits..iterator..Iterator$GT$4next17h91931c020bf26e1fE>:
c00229e0:	fe010113          	addi	sp,sp,-32
c00229e4:	00112e23          	sw	ra,28(sp)
c00229e8:	00a12c23          	sw	a0,24(sp)
c00229ec:	00a12a23          	sw	a0,20(sp)
c00229f0:	00000097          	auipc	ra,0x0
c00229f4:	5fc080e7          	jalr	1532(ra) # c0022fec <_ZN96_$LT$core..iter..adapters..Cloned$LT$I$GT$$u20$as$u20$core..iter..traits..iterator..Iterator$GT$4next17h2c3337c325402833E>
c00229f8:	01412603          	lw	a2,20(sp)
c00229fc:	00c12823          	sw	a2,16(sp)
c0022a00:	00b12623          	sw	a1,12(sp)
c0022a04:	00a12423          	sw	a0,8(sp)
c0022a08:	0040006f          	j	c0022a0c <_ZN89_$LT$core..str..Bytes$LT$$u27$_$GT$$u20$as$u20$core..iter..traits..iterator..Iterator$GT$4next17h91931c020bf26e1fE+0x2c>
c0022a0c:	00812503          	lw	a0,8(sp)
c0022a10:	00157513          	andi	a0,a0,1
c0022a14:	00c12583          	lw	a1,12(sp)
c0022a18:	01c12083          	lw	ra,28(sp)
c0022a1c:	02010113          	addi	sp,sp,32
c0022a20:	00008067          	ret

c0022a24 <_ZN4core4iter6traits8iterator8Iterator6cloned17h21379a1e19d9604cE>:
c0022a24:	fd010113          	addi	sp,sp,-48
c0022a28:	02112623          	sw	ra,44(sp)
c0022a2c:	02b12223          	sw	a1,36(sp)
c0022a30:	02a12023          	sw	a0,32(sp)
c0022a34:	00a12e23          	sw	a0,28(sp)
c0022a38:	00b12c23          	sw	a1,24(sp)
c0022a3c:	00000097          	auipc	ra,0x0
c0022a40:	384080e7          	jalr	900(ra) # c0022dc0 <_ZN46_$LT$core..iter..adapters..Cloned$LT$I$GT$$GT$3new17h8d983d5f1be2dec3E>
c0022a44:	01812603          	lw	a2,24(sp)
c0022a48:	01c12683          	lw	a3,28(sp)
c0022a4c:	00c12a23          	sw	a2,20(sp)
c0022a50:	00d12823          	sw	a3,16(sp)
c0022a54:	00b12623          	sw	a1,12(sp)
c0022a58:	00a12423          	sw	a0,8(sp)
c0022a5c:	0040006f          	j	c0022a60 <_ZN4core4iter6traits8iterator8Iterator6cloned17h21379a1e19d9604cE+0x3c>
c0022a60:	00812503          	lw	a0,8(sp)
c0022a64:	00c12583          	lw	a1,12(sp)
c0022a68:	02c12083          	lw	ra,44(sp)
c0022a6c:	03010113          	addi	sp,sp,48
c0022a70:	00008067          	ret

c0022a74 <_ZN4core5slice29_$LT$impl$u20$$u5b$T$u5d$$GT$3len17hea624aafeac3cb91E>:
c0022a74:	fe010113          	addi	sp,sp,-32
c0022a78:	00a12823          	sw	a0,16(sp)
c0022a7c:	00a12c23          	sw	a0,24(sp)
c0022a80:	00b12a23          	sw	a1,20(sp)
c0022a84:	00b12e23          	sw	a1,28(sp)
c0022a88:	00058613          	mv	a2,a1
c0022a8c:	00a12623          	sw	a0,12(sp)
c0022a90:	00058513          	mv	a0,a1
c0022a94:	00c12423          	sw	a2,8(sp)
c0022a98:	02010113          	addi	sp,sp,32
c0022a9c:	00008067          	ret

c0022aa0 <_ZN4core5slice29_$LT$impl$u20$$u5b$T$u5d$$GT$4iter17h5c5470cd231d1f56E>:
c0022aa0:	fb010113          	addi	sp,sp,-80
c0022aa4:	04112623          	sw	ra,76(sp)
c0022aa8:	02b12a23          	sw	a1,52(sp)
c0022aac:	02a12823          	sw	a0,48(sp)
c0022ab0:	02a12623          	sw	a0,44(sp)
c0022ab4:	02b12423          	sw	a1,40(sp)
c0022ab8:	00000097          	auipc	ra,0x0
c0022abc:	108080e7          	jalr	264(ra) # c0022bc0 <_ZN4core5slice29_$LT$impl$u20$$u5b$T$u5d$$GT$6as_ptr17he08a978595386512E>
c0022ac0:	04a12023          	sw	a0,64(sp)
c0022ac4:	02812503          	lw	a0,40(sp)
c0022ac8:	02c12583          	lw	a1,44(sp)
c0022acc:	02a12223          	sw	a0,36(sp)
c0022ad0:	02b12023          	sw	a1,32(sp)
c0022ad4:	0040006f          	j	c0022ad8 <_ZN4core5slice29_$LT$impl$u20$$u5b$T$u5d$$GT$4iter17h5c5470cd231d1f56E+0x38>
c0022ad8:	04012503          	lw	a0,64(sp)
c0022adc:	00000097          	auipc	ra,0x0
c0022ae0:	298080e7          	jalr	664(ra) # c0022d74 <_ZN4core3ptr33_$LT$impl$u20$$BP$const$u20$T$GT$7is_null17h3c469853c49f1238E>
c0022ae4:	00a12e23          	sw	a0,28(sp)
c0022ae8:	0040006f          	j	c0022aec <_ZN4core5slice29_$LT$impl$u20$$u5b$T$u5d$$GT$4iter17h5c5470cd231d1f56E+0x4c>
c0022aec:	0040006f          	j	c0022af0 <_ZN4core5slice29_$LT$impl$u20$$u5b$T$u5d$$GT$4iter17h5c5470cd231d1f56E+0x50>
c0022af0:	00000097          	auipc	ra,0x0
c0022af4:	0f0080e7          	jalr	240(ra) # c0022be0 <_ZN4core3mem7size_of17hcfdc23010e1e50f1E>
c0022af8:	00a12c23          	sw	a0,24(sp)
c0022afc:	0040006f          	j	c0022b00 <_ZN4core5slice29_$LT$impl$u20$$u5b$T$u5d$$GT$4iter17h5c5470cd231d1f56E+0x60>
c0022b00:	00000513          	li	a0,0
c0022b04:	01812583          	lw	a1,24(sp)
c0022b08:	02a59663          	bne	a1,a0,c0022b34 <_ZN4core5slice29_$LT$impl$u20$$u5b$T$u5d$$GT$4iter17h5c5470cd231d1f56E+0x94>
c0022b0c:	0040006f          	j	c0022b10 <_ZN4core5slice29_$LT$impl$u20$$u5b$T$u5d$$GT$4iter17h5c5470cd231d1f56E+0x70>
c0022b10:	04012503          	lw	a0,64(sp)
c0022b14:	03412583          	lw	a1,52(sp)
c0022b18:	03012603          	lw	a2,48(sp)
c0022b1c:	00a12a23          	sw	a0,20(sp)
c0022b20:	00060513          	mv	a0,a2
c0022b24:	00000097          	auipc	ra,0x0
c0022b28:	f50080e7          	jalr	-176(ra) # c0022a74 <_ZN4core5slice29_$LT$impl$u20$$u5b$T$u5d$$GT$3len17hea624aafeac3cb91E>
c0022b2c:	00a12823          	sw	a0,16(sp)
c0022b30:	0280006f          	j	c0022b58 <_ZN4core5slice29_$LT$impl$u20$$u5b$T$u5d$$GT$4iter17h5c5470cd231d1f56E+0xb8>
c0022b34:	04012503          	lw	a0,64(sp)
c0022b38:	03412583          	lw	a1,52(sp)
c0022b3c:	03012603          	lw	a2,48(sp)
c0022b40:	00a12623          	sw	a0,12(sp)
c0022b44:	00060513          	mv	a0,a2
c0022b48:	00000097          	auipc	ra,0x0
c0022b4c:	f2c080e7          	jalr	-212(ra) # c0022a74 <_ZN4core5slice29_$LT$impl$u20$$u5b$T$u5d$$GT$3len17hea624aafeac3cb91E>
c0022b50:	00a12423          	sw	a0,8(sp)
c0022b54:	0280006f          	j	c0022b7c <_ZN4core5slice29_$LT$impl$u20$$u5b$T$u5d$$GT$4iter17h5c5470cd231d1f56E+0xdc>
c0022b58:	01412503          	lw	a0,20(sp)
c0022b5c:	01012583          	lw	a1,16(sp)
c0022b60:	00000097          	auipc	ra,0x0
c0022b64:	11c080e7          	jalr	284(ra) # c0022c7c <_ZN4core3ptr33_$LT$impl$u20$$BP$const$u20$T$GT$12wrapping_add17h4767c599cca8ed01E>
c0022b68:	00a12223          	sw	a0,4(sp)
c0022b6c:	0040006f          	j	c0022b70 <_ZN4core5slice29_$LT$impl$u20$$u5b$T$u5d$$GT$4iter17h5c5470cd231d1f56E+0xd0>
c0022b70:	00412503          	lw	a0,4(sp)
c0022b74:	04a12223          	sw	a0,68(sp)
c0022b78:	0200006f          	j	c0022b98 <_ZN4core5slice29_$LT$impl$u20$$u5b$T$u5d$$GT$4iter17h5c5470cd231d1f56E+0xf8>
c0022b7c:	00c12503          	lw	a0,12(sp)
c0022b80:	00812583          	lw	a1,8(sp)
c0022b84:	00000097          	auipc	ra,0x0
c0022b88:	174080e7          	jalr	372(ra) # c0022cf8 <_ZN4core3ptr33_$LT$impl$u20$$BP$const$u20$T$GT$3add17he69ff14d7ed079adE>
c0022b8c:	04a12223          	sw	a0,68(sp)
c0022b90:	0040006f          	j	c0022b94 <_ZN4core5slice29_$LT$impl$u20$$u5b$T$u5d$$GT$4iter17h5c5470cd231d1f56E+0xf4>
c0022b94:	0040006f          	j	c0022b98 <_ZN4core5slice29_$LT$impl$u20$$u5b$T$u5d$$GT$4iter17h5c5470cd231d1f56E+0xf8>
c0022b98:	04412503          	lw	a0,68(sp)
c0022b9c:	02a12e23          	sw	a0,60(sp)
c0022ba0:	04012583          	lw	a1,64(sp)
c0022ba4:	02b12c23          	sw	a1,56(sp)
c0022ba8:	00a12023          	sw	a0,0(sp)
c0022bac:	00058513          	mv	a0,a1
c0022bb0:	00012583          	lw	a1,0(sp)
c0022bb4:	04c12083          	lw	ra,76(sp)
c0022bb8:	05010113          	addi	sp,sp,80
c0022bbc:	00008067          	ret

c0022bc0 <_ZN4core5slice29_$LT$impl$u20$$u5b$T$u5d$$GT$6as_ptr17he08a978595386512E>:
c0022bc0:	ff010113          	addi	sp,sp,-16
c0022bc4:	00b12623          	sw	a1,12(sp)
c0022bc8:	00a12423          	sw	a0,8(sp)
c0022bcc:	00050613          	mv	a2,a0
c0022bd0:	00b12223          	sw	a1,4(sp)
c0022bd4:	00c12023          	sw	a2,0(sp)
c0022bd8:	01010113          	addi	sp,sp,16
c0022bdc:	00008067          	ret

c0022be0 <_ZN4core3mem7size_of17hcfdc23010e1e50f1E>:
c0022be0:	ff010113          	addi	sp,sp,-16
c0022be4:	00100513          	li	a0,1
c0022be8:	00a12623          	sw	a0,12(sp)
c0022bec:	00a12423          	sw	a0,8(sp)
c0022bf0:	0040006f          	j	c0022bf4 <_ZN4core3mem7size_of17hcfdc23010e1e50f1E+0x14>
c0022bf4:	00812503          	lw	a0,8(sp)
c0022bf8:	01010113          	addi	sp,sp,16
c0022bfc:	00008067          	ret

c0022c00 <_ZN4core3ptr31_$LT$impl$u20$$BP$mut$u20$T$GT$3add17h598e2c7a0fc1766eE>:
c0022c00:	fe010113          	addi	sp,sp,-32
c0022c04:	00112e23          	sw	ra,28(sp)
c0022c08:	00b12c23          	sw	a1,24(sp)
c0022c0c:	00a12a23          	sw	a0,20(sp)
c0022c10:	00a12823          	sw	a0,16(sp)
c0022c14:	00b12623          	sw	a1,12(sp)
c0022c18:	00000097          	auipc	ra,0x0
c0022c1c:	030080e7          	jalr	48(ra) # c0022c48 <_ZN4core3ptr31_$LT$impl$u20$$BP$mut$u20$T$GT$6offset17hed2f2876cef31ce5E>
c0022c20:	00c12583          	lw	a1,12(sp)
c0022c24:	01012603          	lw	a2,16(sp)
c0022c28:	00b12423          	sw	a1,8(sp)
c0022c2c:	00c12223          	sw	a2,4(sp)
c0022c30:	00a12023          	sw	a0,0(sp)
c0022c34:	0040006f          	j	c0022c38 <_ZN4core3ptr31_$LT$impl$u20$$BP$mut$u20$T$GT$3add17h598e2c7a0fc1766eE+0x38>
c0022c38:	00012503          	lw	a0,0(sp)
c0022c3c:	01c12083          	lw	ra,28(sp)
c0022c40:	02010113          	addi	sp,sp,32
c0022c44:	00008067          	ret

c0022c48 <_ZN4core3ptr31_$LT$impl$u20$$BP$mut$u20$T$GT$6offset17hed2f2876cef31ce5E>:
c0022c48:	fe010113          	addi	sp,sp,-32
c0022c4c:	00b12c23          	sw	a1,24(sp)
c0022c50:	00a12a23          	sw	a0,20(sp)
c0022c54:	00058613          	mv	a2,a1
c0022c58:	00b505b3          	add	a1,a0,a1
c0022c5c:	00b12e23          	sw	a1,28(sp)
c0022c60:	00c12823          	sw	a2,16(sp)
c0022c64:	00b12623          	sw	a1,12(sp)
c0022c68:	00a12423          	sw	a0,8(sp)
c0022c6c:	0040006f          	j	c0022c70 <_ZN4core3ptr31_$LT$impl$u20$$BP$mut$u20$T$GT$6offset17hed2f2876cef31ce5E+0x28>
c0022c70:	00c12503          	lw	a0,12(sp)
c0022c74:	02010113          	addi	sp,sp,32
c0022c78:	00008067          	ret

c0022c7c <_ZN4core3ptr33_$LT$impl$u20$$BP$const$u20$T$GT$12wrapping_add17h4767c599cca8ed01E>:
c0022c7c:	fe010113          	addi	sp,sp,-32
c0022c80:	00112e23          	sw	ra,28(sp)
c0022c84:	00b12c23          	sw	a1,24(sp)
c0022c88:	00a12a23          	sw	a0,20(sp)
c0022c8c:	00a12823          	sw	a0,16(sp)
c0022c90:	00b12623          	sw	a1,12(sp)
c0022c94:	00000097          	auipc	ra,0x0
c0022c98:	030080e7          	jalr	48(ra) # c0022cc4 <_ZN4core3ptr33_$LT$impl$u20$$BP$const$u20$T$GT$15wrapping_offset17h39e73f82710043bbE>
c0022c9c:	00c12583          	lw	a1,12(sp)
c0022ca0:	01012603          	lw	a2,16(sp)
c0022ca4:	00b12423          	sw	a1,8(sp)
c0022ca8:	00c12223          	sw	a2,4(sp)
c0022cac:	00a12023          	sw	a0,0(sp)
c0022cb0:	0040006f          	j	c0022cb4 <_ZN4core3ptr33_$LT$impl$u20$$BP$const$u20$T$GT$12wrapping_add17h4767c599cca8ed01E+0x38>
c0022cb4:	00012503          	lw	a0,0(sp)
c0022cb8:	01c12083          	lw	ra,28(sp)
c0022cbc:	02010113          	addi	sp,sp,32
c0022cc0:	00008067          	ret

c0022cc4 <_ZN4core3ptr33_$LT$impl$u20$$BP$const$u20$T$GT$15wrapping_offset17h39e73f82710043bbE>:
c0022cc4:	fe010113          	addi	sp,sp,-32
c0022cc8:	00b12c23          	sw	a1,24(sp)
c0022ccc:	00a12a23          	sw	a0,20(sp)
c0022cd0:	00058613          	mv	a2,a1
c0022cd4:	00b505b3          	add	a1,a0,a1
c0022cd8:	00b12e23          	sw	a1,28(sp)
c0022cdc:	00c12823          	sw	a2,16(sp)
c0022ce0:	00b12623          	sw	a1,12(sp)
c0022ce4:	00a12423          	sw	a0,8(sp)
c0022ce8:	0040006f          	j	c0022cec <_ZN4core3ptr33_$LT$impl$u20$$BP$const$u20$T$GT$15wrapping_offset17h39e73f82710043bbE+0x28>
c0022cec:	00c12503          	lw	a0,12(sp)
c0022cf0:	02010113          	addi	sp,sp,32
c0022cf4:	00008067          	ret

c0022cf8 <_ZN4core3ptr33_$LT$impl$u20$$BP$const$u20$T$GT$3add17he69ff14d7ed079adE>:
c0022cf8:	fe010113          	addi	sp,sp,-32
c0022cfc:	00112e23          	sw	ra,28(sp)
c0022d00:	00b12c23          	sw	a1,24(sp)
c0022d04:	00a12a23          	sw	a0,20(sp)
c0022d08:	00a12823          	sw	a0,16(sp)
c0022d0c:	00b12623          	sw	a1,12(sp)
c0022d10:	00000097          	auipc	ra,0x0
c0022d14:	030080e7          	jalr	48(ra) # c0022d40 <_ZN4core3ptr33_$LT$impl$u20$$BP$const$u20$T$GT$6offset17hf4c9b4cdedcd1e5eE>
c0022d18:	00c12583          	lw	a1,12(sp)
c0022d1c:	01012603          	lw	a2,16(sp)
c0022d20:	00b12423          	sw	a1,8(sp)
c0022d24:	00c12223          	sw	a2,4(sp)
c0022d28:	00a12023          	sw	a0,0(sp)
c0022d2c:	0040006f          	j	c0022d30 <_ZN4core3ptr33_$LT$impl$u20$$BP$const$u20$T$GT$3add17he69ff14d7ed079adE+0x38>
c0022d30:	00012503          	lw	a0,0(sp)
c0022d34:	01c12083          	lw	ra,28(sp)
c0022d38:	02010113          	addi	sp,sp,32
c0022d3c:	00008067          	ret

c0022d40 <_ZN4core3ptr33_$LT$impl$u20$$BP$const$u20$T$GT$6offset17hf4c9b4cdedcd1e5eE>:
c0022d40:	fe010113          	addi	sp,sp,-32
c0022d44:	00b12c23          	sw	a1,24(sp)
c0022d48:	00a12a23          	sw	a0,20(sp)
c0022d4c:	00058613          	mv	a2,a1
c0022d50:	00b505b3          	add	a1,a0,a1
c0022d54:	00b12e23          	sw	a1,28(sp)
c0022d58:	00c12823          	sw	a2,16(sp)
c0022d5c:	00b12623          	sw	a1,12(sp)
c0022d60:	00a12423          	sw	a0,8(sp)
c0022d64:	0040006f          	j	c0022d68 <_ZN4core3ptr33_$LT$impl$u20$$BP$const$u20$T$GT$6offset17hf4c9b4cdedcd1e5eE+0x28>
c0022d68:	00c12503          	lw	a0,12(sp)
c0022d6c:	02010113          	addi	sp,sp,32
c0022d70:	00008067          	ret

c0022d74 <_ZN4core3ptr33_$LT$impl$u20$$BP$const$u20$T$GT$7is_null17h3c469853c49f1238E>:
c0022d74:	fe010113          	addi	sp,sp,-32
c0022d78:	00112e23          	sw	ra,28(sp)
c0022d7c:	00a12c23          	sw	a0,24(sp)
c0022d80:	00050593          	mv	a1,a0
c0022d84:	00b12a23          	sw	a1,20(sp)
c0022d88:	00a12823          	sw	a0,16(sp)
c0022d8c:	00000097          	auipc	ra,0x0
c0022d90:	02c080e7          	jalr	44(ra) # c0022db8 <_ZN4core3ptr4null17hee06e11002eaf0d4E>
c0022d94:	00a12623          	sw	a0,12(sp)
c0022d98:	0040006f          	j	c0022d9c <_ZN4core3ptr33_$LT$impl$u20$$BP$const$u20$T$GT$7is_null17h3c469853c49f1238E+0x28>
c0022d9c:	01412503          	lw	a0,20(sp)
c0022da0:	00c12583          	lw	a1,12(sp)
c0022da4:	00b54633          	xor	a2,a0,a1
c0022da8:	00163513          	seqz	a0,a2
c0022dac:	01c12083          	lw	ra,28(sp)
c0022db0:	02010113          	addi	sp,sp,32
c0022db4:	00008067          	ret

c0022db8 <_ZN4core3ptr4null17hee06e11002eaf0d4E>:
c0022db8:	00000513          	li	a0,0
c0022dbc:	00008067          	ret

c0022dc0 <_ZN46_$LT$core..iter..adapters..Cloned$LT$I$GT$$GT$3new17h8d983d5f1be2dec3E>:
c0022dc0:	fe010113          	addi	sp,sp,-32
c0022dc4:	00b12a23          	sw	a1,20(sp)
c0022dc8:	00a12823          	sw	a0,16(sp)
c0022dcc:	00b12e23          	sw	a1,28(sp)
c0022dd0:	00a12c23          	sw	a0,24(sp)
c0022dd4:	00058613          	mv	a2,a1
c0022dd8:	00050693          	mv	a3,a0
c0022ddc:	00c12623          	sw	a2,12(sp)
c0022de0:	00d12423          	sw	a3,8(sp)
c0022de4:	02010113          	addi	sp,sp,32
c0022de8:	00008067          	ret

c0022dec <__udivsi3>:
c0022dec:	fe010113          	addi	sp,sp,-32
c0022df0:	00112e23          	sw	ra,28(sp)
c0022df4:	00912c23          	sw	s1,24(sp)
c0022df8:	01212a23          	sw	s2,20(sp)
c0022dfc:	01312823          	sw	s3,16(sp)
c0022e00:	01412623          	sw	s4,12(sp)
c0022e04:	1a058a63          	beqz	a1,c0022fb8 <__udivsi3+0x1cc>
c0022e08:	00050913          	mv	s2,a0
c0022e0c:	12050263          	beqz	a0,c0022f30 <__udivsi3+0x144>
c0022e10:	00058493          	mv	s1,a1
c0022e14:	02000993          	li	s3,32
c0022e18:	00098a13          	mv	s4,s3
c0022e1c:	08058263          	beqz	a1,c0022ea0 <__udivsi3+0xb4>
c0022e20:	0014d513          	srli	a0,s1,0x1
c0022e24:	00a4e533          	or	a0,s1,a0
c0022e28:	00255593          	srli	a1,a0,0x2
c0022e2c:	00b56533          	or	a0,a0,a1
c0022e30:	00455593          	srli	a1,a0,0x4
c0022e34:	00b56533          	or	a0,a0,a1
c0022e38:	00855593          	srli	a1,a0,0x8
c0022e3c:	00b56533          	or	a0,a0,a1
c0022e40:	01055593          	srli	a1,a0,0x10
c0022e44:	00b56533          	or	a0,a0,a1
c0022e48:	555555b7          	lui	a1,0x55555
c0022e4c:	55558593          	addi	a1,a1,1365 # 55555555 <.Lline_table_start0+0x5554f7ea>
c0022e50:	fff54513          	not	a0,a0
c0022e54:	00155613          	srli	a2,a0,0x1
c0022e58:	00b675b3          	and	a1,a2,a1
c0022e5c:	40b50533          	sub	a0,a0,a1
c0022e60:	333335b7          	lui	a1,0x33333
c0022e64:	33358593          	addi	a1,a1,819 # 33333333 <.Lline_table_start0+0x3332d5c8>
c0022e68:	00b57633          	and	a2,a0,a1
c0022e6c:	00255513          	srli	a0,a0,0x2
c0022e70:	00b57533          	and	a0,a0,a1
c0022e74:	00a60533          	add	a0,a2,a0
c0022e78:	00455593          	srli	a1,a0,0x4
c0022e7c:	00b50533          	add	a0,a0,a1
c0022e80:	0f0f15b7          	lui	a1,0xf0f1
c0022e84:	f0f58593          	addi	a1,a1,-241 # f0f0f0f <.Lline_table_start0+0xf0eb1a4>
c0022e88:	00b57533          	and	a0,a0,a1
c0022e8c:	010105b7          	lui	a1,0x1010
c0022e90:	10158593          	addi	a1,a1,257 # 1010101 <.Lline_table_start0+0x100a396>
c0022e94:	fffff097          	auipc	ra,0xfffff
c0022e98:	83c080e7          	jalr	-1988(ra) # c00216d0 <__mulsi3>
c0022e9c:	01855a13          	srli	s4,a0,0x18
c0022ea0:	00098513          	mv	a0,s3
c0022ea4:	08090263          	beqz	s2,c0022f28 <__udivsi3+0x13c>
c0022ea8:	00195513          	srli	a0,s2,0x1
c0022eac:	00a96533          	or	a0,s2,a0
c0022eb0:	00255593          	srli	a1,a0,0x2
c0022eb4:	00b56533          	or	a0,a0,a1
c0022eb8:	00455593          	srli	a1,a0,0x4
c0022ebc:	00b56533          	or	a0,a0,a1
c0022ec0:	00855593          	srli	a1,a0,0x8
c0022ec4:	00b56533          	or	a0,a0,a1
c0022ec8:	01055593          	srli	a1,a0,0x10
c0022ecc:	00b56533          	or	a0,a0,a1
c0022ed0:	555555b7          	lui	a1,0x55555
c0022ed4:	55558593          	addi	a1,a1,1365 # 55555555 <.Lline_table_start0+0x5554f7ea>
c0022ed8:	fff54513          	not	a0,a0
c0022edc:	00155613          	srli	a2,a0,0x1
c0022ee0:	00b675b3          	and	a1,a2,a1
c0022ee4:	40b50533          	sub	a0,a0,a1
c0022ee8:	333335b7          	lui	a1,0x33333
c0022eec:	33358593          	addi	a1,a1,819 # 33333333 <.Lline_table_start0+0x3332d5c8>
c0022ef0:	00b57633          	and	a2,a0,a1
c0022ef4:	00255513          	srli	a0,a0,0x2
c0022ef8:	00b57533          	and	a0,a0,a1
c0022efc:	00a60533          	add	a0,a2,a0
c0022f00:	00455593          	srli	a1,a0,0x4
c0022f04:	00b50533          	add	a0,a0,a1
c0022f08:	0f0f15b7          	lui	a1,0xf0f1
c0022f0c:	f0f58593          	addi	a1,a1,-241 # f0f0f0f <.Lline_table_start0+0xf0eb1a4>
c0022f10:	00b57533          	and	a0,a0,a1
c0022f14:	010105b7          	lui	a1,0x1010
c0022f18:	10158593          	addi	a1,a1,257 # 1010101 <.Lline_table_start0+0x100a396>
c0022f1c:	ffffe097          	auipc	ra,0xffffe
c0022f20:	7b4080e7          	jalr	1972(ra) # c00216d0 <__mulsi3>
c0022f24:	01855513          	srli	a0,a0,0x18
c0022f28:	40aa05b3          	sub	a1,s4,a0
c0022f2c:	0335e463          	bltu	a1,s3,c0022f54 <__udivsi3+0x168>
c0022f30:	00000913          	li	s2,0
c0022f34:	00090513          	mv	a0,s2
c0022f38:	00c12a03          	lw	s4,12(sp)
c0022f3c:	01012983          	lw	s3,16(sp)
c0022f40:	01412903          	lw	s2,20(sp)
c0022f44:	01812483          	lw	s1,24(sp)
c0022f48:	01c12083          	lw	ra,28(sp)
c0022f4c:	02010113          	addi	sp,sp,32
c0022f50:	00008067          	ret
c0022f54:	01f00613          	li	a2,31
c0022f58:	fcc58ee3          	beq	a1,a2,c0022f34 <__udivsi3+0x148>
c0022f5c:	001a0693          	addi	a3,s4,1
c0022f60:	40a68533          	sub	a0,a3,a0
c0022f64:	40b60633          	sub	a2,a2,a1
c0022f68:	00158593          	addi	a1,a1,1
c0022f6c:	00b956b3          	srl	a3,s2,a1
c0022f70:	00c915b3          	sll	a1,s2,a2
c0022f74:	00000613          	li	a2,0
c0022f78:	00169693          	slli	a3,a3,0x1
c0022f7c:	01f5d713          	srli	a4,a1,0x1f
c0022f80:	00e6e6b3          	or	a3,a3,a4
c0022f84:	fff6c713          	not	a4,a3
c0022f88:	00970733          	add	a4,a4,s1
c0022f8c:	41f75713          	srai	a4,a4,0x1f
c0022f90:	009777b3          	and	a5,a4,s1
c0022f94:	40f686b3          	sub	a3,a3,a5
c0022f98:	00159593          	slli	a1,a1,0x1
c0022f9c:	00b665b3          	or	a1,a2,a1
c0022fa0:	00177613          	andi	a2,a4,1
c0022fa4:	fff50513          	addi	a0,a0,-1
c0022fa8:	fc0518e3          	bnez	a0,c0022f78 <__udivsi3+0x18c>
c0022fac:	00159513          	slli	a0,a1,0x1
c0022fb0:	00a66933          	or	s2,a2,a0
c0022fb4:	f81ff06f          	j	c0022f34 <__udivsi3+0x148>
c0022fb8:	fffff097          	auipc	ra,0xfffff
c0022fbc:	920080e7          	jalr	-1760(ra) # c00218d8 <abort>
c0022fc0:	fffff097          	auipc	ra,0xfffff
c0022fc4:	918080e7          	jalr	-1768(ra) # c00218d8 <abort>

c0022fc8 <_ZN63_$LT$I$u20$as$u20$core..iter..traits..collect..IntoIterator$GT$9into_iter17h236c5fd2059135e1E>:
c0022fc8:	ff010113          	addi	sp,sp,-16
c0022fcc:	00b12623          	sw	a1,12(sp)
c0022fd0:	00a12423          	sw	a0,8(sp)
c0022fd4:	00058613          	mv	a2,a1
c0022fd8:	00050693          	mv	a3,a0
c0022fdc:	00c12223          	sw	a2,4(sp)
c0022fe0:	00d12023          	sw	a3,0(sp)
c0022fe4:	01010113          	addi	sp,sp,16
c0022fe8:	00008067          	ret

c0022fec <_ZN96_$LT$core..iter..adapters..Cloned$LT$I$GT$$u20$as$u20$core..iter..traits..iterator..Iterator$GT$4next17h2c3337c325402833E>:
c0022fec:	fe010113          	addi	sp,sp,-32
c0022ff0:	00112e23          	sw	ra,28(sp)
c0022ff4:	00a12c23          	sw	a0,24(sp)
c0022ff8:	00a12a23          	sw	a0,20(sp)
c0022ffc:	00000097          	auipc	ra,0x0
c0023000:	240080e7          	jalr	576(ra) # c002323c <_ZN99_$LT$core..slice..Iter$LT$$u27$a$C$$u20$T$GT$$u20$as$u20$core..iter..traits..iterator..Iterator$GT$4next17h50c5c91a7944d3ddE>
c0023004:	01412583          	lw	a1,20(sp)
c0023008:	00b12823          	sw	a1,16(sp)
c002300c:	00a12623          	sw	a0,12(sp)
c0023010:	0040006f          	j	c0023014 <_ZN96_$LT$core..iter..adapters..Cloned$LT$I$GT$$u20$as$u20$core..iter..traits..iterator..Iterator$GT$4next17h2c3337c325402833E+0x28>
c0023014:	00c12503          	lw	a0,12(sp)
c0023018:	fffff097          	auipc	ra,0xfffff
c002301c:	ae0080e7          	jalr	-1312(ra) # c0021af8 <_ZN53_$LT$core..option..Option$LT$$RF$$u27$a$u20$T$GT$$GT$6cloned17h37740463021addfbE>
c0023020:	00b12423          	sw	a1,8(sp)
c0023024:	00a12223          	sw	a0,4(sp)
c0023028:	0040006f          	j	c002302c <_ZN96_$LT$core..iter..adapters..Cloned$LT$I$GT$$u20$as$u20$core..iter..traits..iterator..Iterator$GT$4next17h2c3337c325402833E+0x40>
c002302c:	00412503          	lw	a0,4(sp)
c0023030:	00157513          	andi	a0,a0,1
c0023034:	00812583          	lw	a1,8(sp)
c0023038:	01c12083          	lw	ra,28(sp)
c002303c:	02010113          	addi	sp,sp,32
c0023040:	00008067          	ret

c0023044 <_ZN4core5slice18from_raw_parts_mut17h3e7ce6af08e0c204E>:
c0023044:	fe010113          	addi	sp,sp,-32
c0023048:	00b12623          	sw	a1,12(sp)
c002304c:	00a12423          	sw	a0,8(sp)
c0023050:	00b12e23          	sw	a1,28(sp)
c0023054:	00a12c23          	sw	a0,24(sp)
c0023058:	00b12a23          	sw	a1,20(sp)
c002305c:	00a12823          	sw	a0,16(sp)
c0023060:	00058613          	mv	a2,a1
c0023064:	00050693          	mv	a3,a0
c0023068:	00c12223          	sw	a2,4(sp)
c002306c:	00d12023          	sw	a3,0(sp)
c0023070:	02010113          	addi	sp,sp,32
c0023074:	00008067          	ret

c0023078 <_ZN4core5slice29_$LT$impl$u20$$u5b$T$u5d$$GT$10as_mut_ptr17h21cef1d9f93d6f98E>:
c0023078:	ff010113          	addi	sp,sp,-16
c002307c:	00b12623          	sw	a1,12(sp)
c0023080:	00a12423          	sw	a0,8(sp)
c0023084:	00050613          	mv	a2,a0
c0023088:	00b12223          	sw	a1,4(sp)
c002308c:	00c12023          	sw	a2,0(sp)
c0023090:	01010113          	addi	sp,sp,16
c0023094:	00008067          	ret

c0023098 <_ZN4core5slice29_$LT$impl$u20$$u5b$T$u5d$$GT$17get_unchecked_mut17hb4e22926e0aa5a08E>:
c0023098:	fd010113          	addi	sp,sp,-48
c002309c:	02112623          	sw	ra,44(sp)
c00230a0:	02b12223          	sw	a1,36(sp)
c00230a4:	02a12023          	sw	a0,32(sp)
c00230a8:	02c12423          	sw	a2,40(sp)
c00230ac:	00a12e23          	sw	a0,28(sp)
c00230b0:	00060513          	mv	a0,a2
c00230b4:	01c12683          	lw	a3,28(sp)
c00230b8:	00b12c23          	sw	a1,24(sp)
c00230bc:	00068593          	mv	a1,a3
c00230c0:	01812703          	lw	a4,24(sp)
c00230c4:	00c12a23          	sw	a2,20(sp)
c00230c8:	00070613          	mv	a2,a4
c00230cc:	00000097          	auipc	ra,0x0
c00230d0:	0f8080e7          	jalr	248(ra) # c00231c4 <_ZN68_$LT$usize$u20$as$u20$core..slice..SliceIndex$LT$$u5b$T$u5d$$GT$$GT$17get_unchecked_mut17h9952bcc7920a4f92E>
c00230d4:	01412583          	lw	a1,20(sp)
c00230d8:	01812603          	lw	a2,24(sp)
c00230dc:	01c12683          	lw	a3,28(sp)
c00230e0:	00b12823          	sw	a1,16(sp)
c00230e4:	00c12623          	sw	a2,12(sp)
c00230e8:	00d12423          	sw	a3,8(sp)
c00230ec:	00a12223          	sw	a0,4(sp)
c00230f0:	0040006f          	j	c00230f4 <_ZN4core5slice29_$LT$impl$u20$$u5b$T$u5d$$GT$17get_unchecked_mut17hb4e22926e0aa5a08E+0x5c>
c00230f4:	00412503          	lw	a0,4(sp)
c00230f8:	02c12083          	lw	ra,44(sp)
c00230fc:	03010113          	addi	sp,sp,48
c0023100:	00008067          	ret

c0023104 <_ZN4core5slice29_$LT$impl$u20$$u5b$T$u5d$$GT$17get_unchecked_mut17hc2ef277a128c643dE>:
c0023104:	fd010113          	addi	sp,sp,-48
c0023108:	02112623          	sw	ra,44(sp)
c002310c:	02b12223          	sw	a1,36(sp)
c0023110:	02a12023          	sw	a0,32(sp)
c0023114:	02c12423          	sw	a2,40(sp)
c0023118:	00a12e23          	sw	a0,28(sp)
c002311c:	00060513          	mv	a0,a2
c0023120:	01c12683          	lw	a3,28(sp)
c0023124:	00b12c23          	sw	a1,24(sp)
c0023128:	00068593          	mv	a1,a3
c002312c:	01812703          	lw	a4,24(sp)
c0023130:	00c12a23          	sw	a2,20(sp)
c0023134:	00070613          	mv	a2,a4
c0023138:	00000097          	auipc	ra,0x0
c002313c:	248080e7          	jalr	584(ra) # c0023380 <_ZN101_$LT$core..ops..range..RangeTo$LT$usize$GT$$u20$as$u20$core..slice..SliceIndex$LT$$u5b$T$u5d$$GT$$GT$17get_unchecked_mut17hbfb02b4473e0f5cdE>
c0023140:	01412603          	lw	a2,20(sp)
c0023144:	01812683          	lw	a3,24(sp)
c0023148:	01c12703          	lw	a4,28(sp)
c002314c:	00c12823          	sw	a2,16(sp)
c0023150:	00d12623          	sw	a3,12(sp)
c0023154:	00e12423          	sw	a4,8(sp)
c0023158:	00b12223          	sw	a1,4(sp)
c002315c:	00a12023          	sw	a0,0(sp)
c0023160:	0040006f          	j	c0023164 <_ZN4core5slice29_$LT$impl$u20$$u5b$T$u5d$$GT$17get_unchecked_mut17hc2ef277a128c643dE+0x60>
c0023164:	00012503          	lw	a0,0(sp)
c0023168:	00412583          	lw	a1,4(sp)
c002316c:	02c12083          	lw	ra,44(sp)
c0023170:	03010113          	addi	sp,sp,48
c0023174:	00008067          	ret

c0023178 <_ZN4core5slice29_$LT$impl$u20$$u5b$T$u5d$$GT$8is_empty17hd3a65f8003ac3d91E>:
c0023178:	fd010113          	addi	sp,sp,-48
c002317c:	02112623          	sw	ra,44(sp)
c0023180:	02b12223          	sw	a1,36(sp)
c0023184:	02a12023          	sw	a0,32(sp)
c0023188:	00a12e23          	sw	a0,28(sp)
c002318c:	00b12c23          	sw	a1,24(sp)
c0023190:	00000097          	auipc	ra,0x0
c0023194:	8e4080e7          	jalr	-1820(ra) # c0022a74 <_ZN4core5slice29_$LT$impl$u20$$u5b$T$u5d$$GT$3len17hea624aafeac3cb91E>
c0023198:	01812583          	lw	a1,24(sp)
c002319c:	01c12603          	lw	a2,28(sp)
c00231a0:	00b12a23          	sw	a1,20(sp)
c00231a4:	00c12823          	sw	a2,16(sp)
c00231a8:	00a12623          	sw	a0,12(sp)
c00231ac:	0040006f          	j	c00231b0 <_ZN4core5slice29_$LT$impl$u20$$u5b$T$u5d$$GT$8is_empty17hd3a65f8003ac3d91E+0x38>
c00231b0:	00c12503          	lw	a0,12(sp)
c00231b4:	00153513          	seqz	a0,a0
c00231b8:	02c12083          	lw	ra,44(sp)
c00231bc:	03010113          	addi	sp,sp,48
c00231c0:	00008067          	ret

c00231c4 <_ZN68_$LT$usize$u20$as$u20$core..slice..SliceIndex$LT$$u5b$T$u5d$$GT$$GT$17get_unchecked_mut17h9952bcc7920a4f92E>:
c00231c4:	fc010113          	addi	sp,sp,-64
c00231c8:	02112e23          	sw	ra,60(sp)
c00231cc:	02c12a23          	sw	a2,52(sp)
c00231d0:	02b12823          	sw	a1,48(sp)
c00231d4:	02a12623          	sw	a0,44(sp)
c00231d8:	02a12423          	sw	a0,40(sp)
c00231dc:	00058513          	mv	a0,a1
c00231e0:	02b12223          	sw	a1,36(sp)
c00231e4:	00060593          	mv	a1,a2
c00231e8:	02c12023          	sw	a2,32(sp)
c00231ec:	00000097          	auipc	ra,0x0
c00231f0:	e8c080e7          	jalr	-372(ra) # c0023078 <_ZN4core5slice29_$LT$impl$u20$$u5b$T$u5d$$GT$10as_mut_ptr17h21cef1d9f93d6f98E>
c00231f4:	02012583          	lw	a1,32(sp)
c00231f8:	02412603          	lw	a2,36(sp)
c00231fc:	02812683          	lw	a3,40(sp)
c0023200:	00b12e23          	sw	a1,28(sp)
c0023204:	00c12c23          	sw	a2,24(sp)
c0023208:	00d12a23          	sw	a3,20(sp)
c002320c:	00a12823          	sw	a0,16(sp)
c0023210:	0040006f          	j	c0023214 <_ZN68_$LT$usize$u20$as$u20$core..slice..SliceIndex$LT$$u5b$T$u5d$$GT$$GT$17get_unchecked_mut17h9952bcc7920a4f92E+0x50>
c0023214:	02c12583          	lw	a1,44(sp)
c0023218:	01012503          	lw	a0,16(sp)
c002321c:	00000097          	auipc	ra,0x0
c0023220:	9e4080e7          	jalr	-1564(ra) # c0022c00 <_ZN4core3ptr31_$LT$impl$u20$$BP$mut$u20$T$GT$3add17h598e2c7a0fc1766eE>
c0023224:	00a12623          	sw	a0,12(sp)
c0023228:	0040006f          	j	c002322c <_ZN68_$LT$usize$u20$as$u20$core..slice..SliceIndex$LT$$u5b$T$u5d$$GT$$GT$17get_unchecked_mut17h9952bcc7920a4f92E+0x68>
c002322c:	00c12503          	lw	a0,12(sp)
c0023230:	03c12083          	lw	ra,60(sp)
c0023234:	04010113          	addi	sp,sp,64
c0023238:	00008067          	ret

c002323c <_ZN99_$LT$core..slice..Iter$LT$$u27$a$C$$u20$T$GT$$u20$as$u20$core..iter..traits..iterator..Iterator$GT$4next17h50c5c91a7944d3ddE>:
c002323c:	fc010113          	addi	sp,sp,-64
c0023240:	02112e23          	sw	ra,60(sp)
c0023244:	02a12223          	sw	a0,36(sp)
c0023248:	00052583          	lw	a1,0(a0)
c002324c:	02a12023          	sw	a0,32(sp)
c0023250:	00058513          	mv	a0,a1
c0023254:	00000097          	auipc	ra,0x0
c0023258:	b20080e7          	jalr	-1248(ra) # c0022d74 <_ZN4core3ptr33_$LT$impl$u20$$BP$const$u20$T$GT$7is_null17h3c469853c49f1238E>
c002325c:	02012583          	lw	a1,32(sp)
c0023260:	00b12e23          	sw	a1,28(sp)
c0023264:	00a12c23          	sw	a0,24(sp)
c0023268:	0040006f          	j	c002326c <_ZN99_$LT$core..slice..Iter$LT$$u27$a$C$$u20$T$GT$$u20$as$u20$core..iter..traits..iterator..Iterator$GT$4next17h50c5c91a7944d3ddE+0x30>
c002326c:	0040006f          	j	c0023270 <_ZN99_$LT$core..slice..Iter$LT$$u27$a$C$$u20$T$GT$$u20$as$u20$core..iter..traits..iterator..Iterator$GT$4next17h50c5c91a7944d3ddE+0x34>
c0023270:	00000097          	auipc	ra,0x0
c0023274:	244080e7          	jalr	580(ra) # c00234b4 <_ZN4core3mem7size_of17h393d059928e2a6adE>
c0023278:	00a12a23          	sw	a0,20(sp)
c002327c:	0040006f          	j	c0023280 <_ZN99_$LT$core..slice..Iter$LT$$u27$a$C$$u20$T$GT$$u20$as$u20$core..iter..traits..iterator..Iterator$GT$4next17h50c5c91a7944d3ddE+0x44>
c0023280:	00000513          	li	a0,0
c0023284:	01412583          	lw	a1,20(sp)
c0023288:	02a58463          	beq	a1,a0,c00232b0 <_ZN99_$LT$core..slice..Iter$LT$$u27$a$C$$u20$T$GT$$u20$as$u20$core..iter..traits..iterator..Iterator$GT$4next17h50c5c91a7944d3ddE+0x74>
c002328c:	0040006f          	j	c0023290 <_ZN99_$LT$core..slice..Iter$LT$$u27$a$C$$u20$T$GT$$u20$as$u20$core..iter..traits..iterator..Iterator$GT$4next17h50c5c91a7944d3ddE+0x54>
c0023290:	02412503          	lw	a0,36(sp)
c0023294:	00452503          	lw	a0,4(a0)
c0023298:	00000097          	auipc	ra,0x0
c002329c:	adc080e7          	jalr	-1316(ra) # c0022d74 <_ZN4core3ptr33_$LT$impl$u20$$BP$const$u20$T$GT$7is_null17h3c469853c49f1238E>
c00232a0:	00a12823          	sw	a0,16(sp)
c00232a4:	0040006f          	j	c00232a8 <_ZN99_$LT$core..slice..Iter$LT$$u27$a$C$$u20$T$GT$$u20$as$u20$core..iter..traits..iterator..Iterator$GT$4next17h50c5c91a7944d3ddE+0x6c>
c00232a8:	0040006f          	j	c00232ac <_ZN99_$LT$core..slice..Iter$LT$$u27$a$C$$u20$T$GT$$u20$as$u20$core..iter..traits..iterator..Iterator$GT$4next17h50c5c91a7944d3ddE+0x70>
c00232ac:	0040006f          	j	c00232b0 <_ZN99_$LT$core..slice..Iter$LT$$u27$a$C$$u20$T$GT$$u20$as$u20$core..iter..traits..iterator..Iterator$GT$4next17h50c5c91a7944d3ddE+0x74>
c00232b0:	02412503          	lw	a0,36(sp)
c00232b4:	00452583          	lw	a1,4(a0)
c00232b8:	00052503          	lw	a0,0(a0)
c00232bc:	00b51a63          	bne	a0,a1,c00232d0 <_ZN99_$LT$core..slice..Iter$LT$$u27$a$C$$u20$T$GT$$u20$as$u20$core..iter..traits..iterator..Iterator$GT$4next17h50c5c91a7944d3ddE+0x94>
c00232c0:	0040006f          	j	c00232c4 <_ZN99_$LT$core..slice..Iter$LT$$u27$a$C$$u20$T$GT$$u20$as$u20$core..iter..traits..iterator..Iterator$GT$4next17h50c5c91a7944d3ddE+0x88>
c00232c4:	00000513          	li	a0,0
c00232c8:	02a12423          	sw	a0,40(sp)
c00232cc:	0a40006f          	j	c0023370 <_ZN99_$LT$core..slice..Iter$LT$$u27$a$C$$u20$T$GT$$u20$as$u20$core..iter..traits..iterator..Iterator$GT$4next17h50c5c91a7944d3ddE+0x134>
c00232d0:	02412503          	lw	a0,36(sp)
c00232d4:	02a12623          	sw	a0,44(sp)
c00232d8:	00100513          	li	a0,1
c00232dc:	02a12823          	sw	a0,48(sp)
c00232e0:	00000097          	auipc	ra,0x0
c00232e4:	1d4080e7          	jalr	468(ra) # c00234b4 <_ZN4core3mem7size_of17h393d059928e2a6adE>
c00232e8:	00000593          	li	a1,0
c00232ec:	02b51e63          	bne	a0,a1,c0023328 <_ZN99_$LT$core..slice..Iter$LT$$u27$a$C$$u20$T$GT$$u20$as$u20$core..iter..traits..iterator..Iterator$GT$4next17h50c5c91a7944d3ddE+0xec>
c00232f0:	0040006f          	j	c00232f4 <_ZN99_$LT$core..slice..Iter$LT$$u27$a$C$$u20$T$GT$$u20$as$u20$core..iter..traits..iterator..Iterator$GT$4next17h50c5c91a7944d3ddE+0xb8>
c00232f4:	00000513          	li	a0,0
c00232f8:	03012583          	lw	a1,48(sp)
c00232fc:	40b505b3          	sub	a1,a0,a1
c0023300:	02c12503          	lw	a0,44(sp)
c0023304:	00452503          	lw	a0,4(a0)
c0023308:	00000097          	auipc	ra,0x0
c002330c:	9bc080e7          	jalr	-1604(ra) # c0022cc4 <_ZN4core3ptr33_$LT$impl$u20$$BP$const$u20$T$GT$15wrapping_offset17h39e73f82710043bbE>
c0023310:	02c12583          	lw	a1,44(sp)
c0023314:	00a5a223          	sw	a0,4(a1)
c0023318:	02c12503          	lw	a0,44(sp)
c002331c:	00052503          	lw	a0,0(a0)
c0023320:	02a12a23          	sw	a0,52(sp)
c0023324:	0340006f          	j	c0023358 <_ZN99_$LT$core..slice..Iter$LT$$u27$a$C$$u20$T$GT$$u20$as$u20$core..iter..traits..iterator..Iterator$GT$4next17h50c5c91a7944d3ddE+0x11c>
c0023328:	02c12503          	lw	a0,44(sp)
c002332c:	00052583          	lw	a1,0(a0)
c0023330:	02b12c23          	sw	a1,56(sp)
c0023334:	00052503          	lw	a0,0(a0)
c0023338:	03012583          	lw	a1,48(sp)
c002333c:	00000097          	auipc	ra,0x0
c0023340:	a04080e7          	jalr	-1532(ra) # c0022d40 <_ZN4core3ptr33_$LT$impl$u20$$BP$const$u20$T$GT$6offset17hf4c9b4cdedcd1e5eE>
c0023344:	02c12583          	lw	a1,44(sp)
c0023348:	00a5a023          	sw	a0,0(a1)
c002334c:	03812503          	lw	a0,56(sp)
c0023350:	02a12a23          	sw	a0,52(sp)
c0023354:	0040006f          	j	c0023358 <_ZN99_$LT$core..slice..Iter$LT$$u27$a$C$$u20$T$GT$$u20$as$u20$core..iter..traits..iterator..Iterator$GT$4next17h50c5c91a7944d3ddE+0x11c>
c0023358:	03412503          	lw	a0,52(sp)
c002335c:	00a12623          	sw	a0,12(sp)
c0023360:	0040006f          	j	c0023364 <_ZN99_$LT$core..slice..Iter$LT$$u27$a$C$$u20$T$GT$$u20$as$u20$core..iter..traits..iterator..Iterator$GT$4next17h50c5c91a7944d3ddE+0x128>
c0023364:	00c12503          	lw	a0,12(sp)
c0023368:	02a12423          	sw	a0,40(sp)
c002336c:	0040006f          	j	c0023370 <_ZN99_$LT$core..slice..Iter$LT$$u27$a$C$$u20$T$GT$$u20$as$u20$core..iter..traits..iterator..Iterator$GT$4next17h50c5c91a7944d3ddE+0x134>
c0023370:	02812503          	lw	a0,40(sp)
c0023374:	03c12083          	lw	ra,60(sp)
c0023378:	04010113          	addi	sp,sp,64
c002337c:	00008067          	ret

c0023380 <_ZN101_$LT$core..ops..range..RangeTo$LT$usize$GT$$u20$as$u20$core..slice..SliceIndex$LT$$u5b$T$u5d$$GT$$GT$17get_unchecked_mut17hbfb02b4473e0f5cdE>:
c0023380:	fc010113          	addi	sp,sp,-64
c0023384:	02112e23          	sw	ra,60(sp)
c0023388:	02c12623          	sw	a2,44(sp)
c002338c:	02b12423          	sw	a1,40(sp)
c0023390:	02a12223          	sw	a0,36(sp)
c0023394:	02a12a23          	sw	a0,52(sp)
c0023398:	00000693          	li	a3,0
c002339c:	02d12823          	sw	a3,48(sp)
c00233a0:	02a12023          	sw	a0,32(sp)
c00233a4:	00068513          	mv	a0,a3
c00233a8:	02012683          	lw	a3,32(sp)
c00233ac:	00b12e23          	sw	a1,28(sp)
c00233b0:	00068593          	mv	a1,a3
c00233b4:	01c12703          	lw	a4,28(sp)
c00233b8:	00c12c23          	sw	a2,24(sp)
c00233bc:	00070613          	mv	a2,a4
c00233c0:	01812683          	lw	a3,24(sp)
c00233c4:	00000097          	auipc	ra,0x0
c00233c8:	040080e7          	jalr	64(ra) # c0023404 <_ZN99_$LT$core..ops..range..Range$LT$usize$GT$$u20$as$u20$core..slice..SliceIndex$LT$$u5b$T$u5d$$GT$$GT$17get_unchecked_mut17h9764dcbc9b641c4bE>
c00233cc:	01812603          	lw	a2,24(sp)
c00233d0:	01c12683          	lw	a3,28(sp)
c00233d4:	02012703          	lw	a4,32(sp)
c00233d8:	00c12a23          	sw	a2,20(sp)
c00233dc:	00d12823          	sw	a3,16(sp)
c00233e0:	00e12623          	sw	a4,12(sp)
c00233e4:	00b12423          	sw	a1,8(sp)
c00233e8:	00a12223          	sw	a0,4(sp)
c00233ec:	0040006f          	j	c00233f0 <_ZN101_$LT$core..ops..range..RangeTo$LT$usize$GT$$u20$as$u20$core..slice..SliceIndex$LT$$u5b$T$u5d$$GT$$GT$17get_unchecked_mut17hbfb02b4473e0f5cdE+0x70>
c00233f0:	00412503          	lw	a0,4(sp)
c00233f4:	00812583          	lw	a1,8(sp)
c00233f8:	03c12083          	lw	ra,60(sp)
c00233fc:	04010113          	addi	sp,sp,64
c0023400:	00008067          	ret

c0023404 <_ZN99_$LT$core..ops..range..Range$LT$usize$GT$$u20$as$u20$core..slice..SliceIndex$LT$$u5b$T$u5d$$GT$$GT$17get_unchecked_mut17h9764dcbc9b641c4bE>:
c0023404:	fb010113          	addi	sp,sp,-80
c0023408:	04112623          	sw	ra,76(sp)
c002340c:	02b12e23          	sw	a1,60(sp)
c0023410:	02a12c23          	sw	a0,56(sp)
c0023414:	04d12223          	sw	a3,68(sp)
c0023418:	04c12023          	sw	a2,64(sp)
c002341c:	02a12a23          	sw	a0,52(sp)
c0023420:	00060513          	mv	a0,a2
c0023424:	02b12823          	sw	a1,48(sp)
c0023428:	00068593          	mv	a1,a3
c002342c:	02d12623          	sw	a3,44(sp)
c0023430:	02c12423          	sw	a2,40(sp)
c0023434:	00000097          	auipc	ra,0x0
c0023438:	c44080e7          	jalr	-956(ra) # c0023078 <_ZN4core5slice29_$LT$impl$u20$$u5b$T$u5d$$GT$10as_mut_ptr17h21cef1d9f93d6f98E>
c002343c:	02c12583          	lw	a1,44(sp)
c0023440:	02812603          	lw	a2,40(sp)
c0023444:	03012683          	lw	a3,48(sp)
c0023448:	03412703          	lw	a4,52(sp)
c002344c:	02b12223          	sw	a1,36(sp)
c0023450:	02c12023          	sw	a2,32(sp)
c0023454:	00d12e23          	sw	a3,28(sp)
c0023458:	00e12c23          	sw	a4,24(sp)
c002345c:	00a12a23          	sw	a0,20(sp)
c0023460:	0040006f          	j	c0023464 <_ZN99_$LT$core..ops..range..Range$LT$usize$GT$$u20$as$u20$core..slice..SliceIndex$LT$$u5b$T$u5d$$GT$$GT$17get_unchecked_mut17h9764dcbc9b641c4bE+0x60>
c0023464:	03812583          	lw	a1,56(sp)
c0023468:	01412503          	lw	a0,20(sp)
c002346c:	fffff097          	auipc	ra,0xfffff
c0023470:	794080e7          	jalr	1940(ra) # c0022c00 <_ZN4core3ptr31_$LT$impl$u20$$BP$mut$u20$T$GT$3add17h598e2c7a0fc1766eE>
c0023474:	00a12823          	sw	a0,16(sp)
c0023478:	0040006f          	j	c002347c <_ZN99_$LT$core..ops..range..Range$LT$usize$GT$$u20$as$u20$core..slice..SliceIndex$LT$$u5b$T$u5d$$GT$$GT$17get_unchecked_mut17h9764dcbc9b641c4bE+0x78>
c002347c:	03812503          	lw	a0,56(sp)
c0023480:	03c12583          	lw	a1,60(sp)
c0023484:	40a585b3          	sub	a1,a1,a0
c0023488:	01012503          	lw	a0,16(sp)
c002348c:	00000097          	auipc	ra,0x0
c0023490:	bb8080e7          	jalr	-1096(ra) # c0023044 <_ZN4core5slice18from_raw_parts_mut17h3e7ce6af08e0c204E>
c0023494:	00b12623          	sw	a1,12(sp)
c0023498:	00a12423          	sw	a0,8(sp)
c002349c:	0040006f          	j	c00234a0 <_ZN99_$LT$core..ops..range..Range$LT$usize$GT$$u20$as$u20$core..slice..SliceIndex$LT$$u5b$T$u5d$$GT$$GT$17get_unchecked_mut17h9764dcbc9b641c4bE+0x9c>
c00234a0:	00812503          	lw	a0,8(sp)
c00234a4:	00c12583          	lw	a1,12(sp)
c00234a8:	04c12083          	lw	ra,76(sp)
c00234ac:	05010113          	addi	sp,sp,80
c00234b0:	00008067          	ret

c00234b4 <_ZN4core3mem7size_of17h393d059928e2a6adE>:
c00234b4:	ff010113          	addi	sp,sp,-16
c00234b8:	00100513          	li	a0,1
c00234bc:	00a12623          	sw	a0,12(sp)
c00234c0:	00a12423          	sw	a0,8(sp)
c00234c4:	0040006f          	j	c00234c8 <_ZN4core3mem7size_of17h393d059928e2a6adE+0x14>
c00234c8:	00812503          	lw	a0,8(sp)
c00234cc:	01010113          	addi	sp,sp,16
c00234d0:	00008067          	ret

c00234d4 <_ZN4core4char7convert18from_u32_unchecked17h8b3ad2aa72b738efE>:
c00234d4:	ff010113          	addi	sp,sp,-16
c00234d8:	00a12623          	sw	a0,12(sp)
c00234dc:	00a12423          	sw	a0,8(sp)
c00234e0:	00050593          	mv	a1,a0
c00234e4:	00b12223          	sw	a1,4(sp)
c00234e8:	00a12023          	sw	a0,0(sp)
c00234ec:	0040006f          	j	c00234f0 <_ZN4core4char7convert18from_u32_unchecked17h8b3ad2aa72b738efE+0x1c>
c00234f0:	00412503          	lw	a0,4(sp)
c00234f4:	01010113          	addi	sp,sp,16
c00234f8:	00008067          	ret

c00234fc <_ZN7rcore323sbi15console_putchar17hd0374bf33038845cE>:
c00234fc:	fd010113          	addi	sp,sp,-48
c0023500:	00100593          	li	a1,1
c0023504:	00b12e23          	sw	a1,28(sp)
c0023508:	00a12c23          	sw	a0,24(sp)
c002350c:	02a12023          	sw	a0,32(sp)
c0023510:	00000613          	li	a2,0
c0023514:	02c12223          	sw	a2,36(sp)
c0023518:	02c12423          	sw	a2,40(sp)
c002351c:	00a12a23          	sw	a0,20(sp)
c0023520:	00b12823          	sw	a1,16(sp)
c0023524:	00060593          	mv	a1,a2
c0023528:	01012883          	lw	a7,16(sp)
c002352c:	00000073          	ecall
c0023530:	02a12623          	sw	a0,44(sp)
c0023534:	01412503          	lw	a0,20(sp)
c0023538:	00a12623          	sw	a0,12(sp)
c002353c:	0040006f          	j	c0023540 <_ZN7rcore323sbi15console_putchar17hd0374bf33038845cE+0x44>
c0023540:	03010113          	addi	sp,sp,48
c0023544:	00008067          	ret

c0023548 <_ZN7rcore323sbi11other_ecall17h99b0d2400c7569cdE>:
c0023548:	fe010113          	addi	sp,sp,-32
c002354c:	00000513          	li	a0,0
c0023550:	00a12823          	sw	a0,16(sp)
c0023554:	00900593          	li	a1,9
c0023558:	00b12623          	sw	a1,12(sp)
c002355c:	00a12a23          	sw	a0,20(sp)
c0023560:	00a12c23          	sw	a0,24(sp)
c0023564:	00a12423          	sw	a0,8(sp)
c0023568:	00812603          	lw	a2,8(sp)
c002356c:	00b12223          	sw	a1,4(sp)
c0023570:	00060593          	mv	a1,a2
c0023574:	00412883          	lw	a7,4(sp)
c0023578:	00000073          	ecall
c002357c:	00a12e23          	sw	a0,28(sp)
c0023580:	0040006f          	j	c0023584 <_ZN7rcore323sbi11other_ecall17h99b0d2400c7569cdE+0x3c>
c0023584:	02010113          	addi	sp,sp,32
c0023588:	00008067          	ret

c002358c <_ZN5riscv8register6mcause6Mcause12is_interrupt17hec1022f802c6b9ccE>:
c002358c:	ff010113          	addi	sp,sp,-16
c0023590:	00a12623          	sw	a0,12(sp)
c0023594:	00050593          	mv	a1,a0
c0023598:	00052503          	lw	a0,0(a0)
c002359c:	00b12423          	sw	a1,8(sp)
c00235a0:	00a12223          	sw	a0,4(sp)
c00235a4:	0040006f          	j	c00235a8 <_ZN5riscv8register6mcause6Mcause12is_interrupt17hec1022f802c6b9ccE+0x1c>
c00235a8:	80000537          	lui	a0,0x80000
c00235ac:	00412583          	lw	a1,4(sp)
c00235b0:	00a5f533          	and	a0,a1,a0
c00235b4:	00a12023          	sw	a0,0(sp)
c00235b8:	0040006f          	j	c00235bc <_ZN5riscv8register6mcause6Mcause12is_interrupt17hec1022f802c6b9ccE+0x30>
c00235bc:	80000537          	lui	a0,0x80000
c00235c0:	00012583          	lw	a1,0(sp)
c00235c4:	00a5c533          	xor	a0,a1,a0
c00235c8:	00153513          	seqz	a0,a0
c00235cc:	01010113          	addi	sp,sp,16
c00235d0:	00008067          	ret

c00235d4 <_ZN5riscv8register6mcause6Mcause4bits17heeba6c3ee9597247E>:
c00235d4:	ff010113          	addi	sp,sp,-16
c00235d8:	00a12623          	sw	a0,12(sp)
c00235dc:	00050593          	mv	a1,a0
c00235e0:	00052503          	lw	a0,0(a0) # 80000000 <bootstacktop+0xbff5b000>
c00235e4:	00b12423          	sw	a1,8(sp)
c00235e8:	01010113          	addi	sp,sp,16
c00235ec:	00008067          	ret

c00235f0 <_ZN5riscv8register6mcause6Mcause5cause17h640cefa561bcdc92E>:
c00235f0:	fd010113          	addi	sp,sp,-48
c00235f4:	02112623          	sw	ra,44(sp)
c00235f8:	02a12223          	sw	a0,36(sp)
c00235fc:	02a12023          	sw	a0,32(sp)
c0023600:	00000097          	auipc	ra,0x0
c0023604:	f8c080e7          	jalr	-116(ra) # c002358c <_ZN5riscv8register6mcause6Mcause12is_interrupt17hec1022f802c6b9ccE>
c0023608:	02012583          	lw	a1,32(sp)
c002360c:	00b12e23          	sw	a1,28(sp)
c0023610:	00a12c23          	sw	a0,24(sp)
c0023614:	0040006f          	j	c0023618 <_ZN5riscv8register6mcause6Mcause5cause17h640cefa561bcdc92E+0x28>
c0023618:	00000513          	li	a0,0
c002361c:	01812583          	lw	a1,24(sp)
c0023620:	00a58e63          	beq	a1,a0,c002363c <_ZN5riscv8register6mcause6Mcause5cause17h640cefa561bcdc92E+0x4c>
c0023624:	0040006f          	j	c0023628 <_ZN5riscv8register6mcause6Mcause5cause17h640cefa561bcdc92E+0x38>
c0023628:	02412503          	lw	a0,36(sp)
c002362c:	00000097          	auipc	ra,0x0
c0023630:	36c080e7          	jalr	876(ra) # c0023998 <_ZN5riscv8register6mcause6Mcause4code17hfd810ace9076c519E>
c0023634:	00a12a23          	sw	a0,20(sp)
c0023638:	0180006f          	j	c0023650 <_ZN5riscv8register6mcause6Mcause5cause17h640cefa561bcdc92E+0x60>
c002363c:	02412503          	lw	a0,36(sp)
c0023640:	00000097          	auipc	ra,0x0
c0023644:	358080e7          	jalr	856(ra) # c0023998 <_ZN5riscv8register6mcause6Mcause4code17hfd810ace9076c519E>
c0023648:	00a12823          	sw	a0,16(sp)
c002364c:	0300006f          	j	c002367c <_ZN5riscv8register6mcause6Mcause5cause17h640cefa561bcdc92E+0x8c>
c0023650:	01412503          	lw	a0,20(sp)
c0023654:	00000097          	auipc	ra,0x0
c0023658:	068080e7          	jalr	104(ra) # c00236bc <_ZN5riscv8register6mcause9Interrupt4from17h963106346624c1b3E>
c002365c:	0ff57513          	andi	a0,a0,255
c0023660:	00a12623          	sw	a0,12(sp)
c0023664:	0040006f          	j	c0023668 <_ZN5riscv8register6mcause6Mcause5cause17h640cefa561bcdc92E+0x78>
c0023668:	00000513          	li	a0,0
c002366c:	02a10423          	sb	a0,40(sp)
c0023670:	00c12503          	lw	a0,12(sp)
c0023674:	02a104a3          	sb	a0,41(sp)
c0023678:	0300006f          	j	c00236a8 <_ZN5riscv8register6mcause6Mcause5cause17h640cefa561bcdc92E+0xb8>
c002367c:	01012503          	lw	a0,16(sp)
c0023680:	00000097          	auipc	ra,0x0
c0023684:	164080e7          	jalr	356(ra) # c00237e4 <_ZN5riscv8register6mcause9Exception4from17h75a7bb191c5e881eE>
c0023688:	0ff57513          	andi	a0,a0,255
c002368c:	00a12423          	sw	a0,8(sp)
c0023690:	0040006f          	j	c0023694 <_ZN5riscv8register6mcause6Mcause5cause17h640cefa561bcdc92E+0xa4>
c0023694:	00100513          	li	a0,1
c0023698:	02a10423          	sb	a0,40(sp)
c002369c:	00812503          	lw	a0,8(sp)
c00236a0:	02a104a3          	sb	a0,41(sp)
c00236a4:	0040006f          	j	c00236a8 <_ZN5riscv8register6mcause6Mcause5cause17h640cefa561bcdc92E+0xb8>
c00236a8:	02814503          	lbu	a0,40(sp)
c00236ac:	02910583          	lb	a1,41(sp)
c00236b0:	02c12083          	lw	ra,44(sp)
c00236b4:	03010113          	addi	sp,sp,48
c00236b8:	00008067          	ret

c00236bc <_ZN5riscv8register6mcause9Interrupt4from17h963106346624c1b3E>:
c00236bc:	ff010113          	addi	sp,sp,-16
c00236c0:	00a12423          	sw	a0,8(sp)
c00236c4:	00050593          	mv	a1,a0
c00236c8:	00050613          	mv	a2,a0
c00236cc:	00000693          	li	a3,0
c00236d0:	00b12223          	sw	a1,4(sp)
c00236d4:	00c12023          	sw	a2,0(sp)
c00236d8:	08d50463          	beq	a0,a3,c0023760 <_ZN5riscv8register6mcause9Interrupt4from17h963106346624c1b3E+0xa4>
c00236dc:	0040006f          	j	c00236e0 <_ZN5riscv8register6mcause9Interrupt4from17h963106346624c1b3E+0x24>
c00236e0:	00100513          	li	a0,1
c00236e4:	00412583          	lw	a1,4(sp)
c00236e8:	08a58263          	beq	a1,a0,c002376c <_ZN5riscv8register6mcause9Interrupt4from17h963106346624c1b3E+0xb0>
c00236ec:	0040006f          	j	c00236f0 <_ZN5riscv8register6mcause9Interrupt4from17h963106346624c1b3E+0x34>
c00236f0:	00300513          	li	a0,3
c00236f4:	00412583          	lw	a1,4(sp)
c00236f8:	08a58063          	beq	a1,a0,c0023778 <_ZN5riscv8register6mcause9Interrupt4from17h963106346624c1b3E+0xbc>
c00236fc:	0040006f          	j	c0023700 <_ZN5riscv8register6mcause9Interrupt4from17h963106346624c1b3E+0x44>
c0023700:	00400513          	li	a0,4
c0023704:	00412583          	lw	a1,4(sp)
c0023708:	06a58e63          	beq	a1,a0,c0023784 <_ZN5riscv8register6mcause9Interrupt4from17h963106346624c1b3E+0xc8>
c002370c:	0040006f          	j	c0023710 <_ZN5riscv8register6mcause9Interrupt4from17h963106346624c1b3E+0x54>
c0023710:	00500513          	li	a0,5
c0023714:	00412583          	lw	a1,4(sp)
c0023718:	06a58c63          	beq	a1,a0,c0023790 <_ZN5riscv8register6mcause9Interrupt4from17h963106346624c1b3E+0xd4>
c002371c:	0040006f          	j	c0023720 <_ZN5riscv8register6mcause9Interrupt4from17h963106346624c1b3E+0x64>
c0023720:	00700513          	li	a0,7
c0023724:	00412583          	lw	a1,4(sp)
c0023728:	06a58a63          	beq	a1,a0,c002379c <_ZN5riscv8register6mcause9Interrupt4from17h963106346624c1b3E+0xe0>
c002372c:	0040006f          	j	c0023730 <_ZN5riscv8register6mcause9Interrupt4from17h963106346624c1b3E+0x74>
c0023730:	00800513          	li	a0,8
c0023734:	00412583          	lw	a1,4(sp)
c0023738:	06a58863          	beq	a1,a0,c00237a8 <_ZN5riscv8register6mcause9Interrupt4from17h963106346624c1b3E+0xec>
c002373c:	0040006f          	j	c0023740 <_ZN5riscv8register6mcause9Interrupt4from17h963106346624c1b3E+0x84>
c0023740:	00900513          	li	a0,9
c0023744:	00412583          	lw	a1,4(sp)
c0023748:	06a58663          	beq	a1,a0,c00237b4 <_ZN5riscv8register6mcause9Interrupt4from17h963106346624c1b3E+0xf8>
c002374c:	0040006f          	j	c0023750 <_ZN5riscv8register6mcause9Interrupt4from17h963106346624c1b3E+0x94>
c0023750:	00b00513          	li	a0,11
c0023754:	00412583          	lw	a1,4(sp)
c0023758:	06a58463          	beq	a1,a0,c00237c0 <_ZN5riscv8register6mcause9Interrupt4from17h963106346624c1b3E+0x104>
c002375c:	0700006f          	j	c00237cc <_ZN5riscv8register6mcause9Interrupt4from17h963106346624c1b3E+0x110>
c0023760:	00000513          	li	a0,0
c0023764:	00a107a3          	sb	a0,15(sp)
c0023768:	0700006f          	j	c00237d8 <_ZN5riscv8register6mcause9Interrupt4from17h963106346624c1b3E+0x11c>
c002376c:	00100513          	li	a0,1
c0023770:	00a107a3          	sb	a0,15(sp)
c0023774:	0640006f          	j	c00237d8 <_ZN5riscv8register6mcause9Interrupt4from17h963106346624c1b3E+0x11c>
c0023778:	00200513          	li	a0,2
c002377c:	00a107a3          	sb	a0,15(sp)
c0023780:	0580006f          	j	c00237d8 <_ZN5riscv8register6mcause9Interrupt4from17h963106346624c1b3E+0x11c>
c0023784:	00300513          	li	a0,3
c0023788:	00a107a3          	sb	a0,15(sp)
c002378c:	04c0006f          	j	c00237d8 <_ZN5riscv8register6mcause9Interrupt4from17h963106346624c1b3E+0x11c>
c0023790:	00400513          	li	a0,4
c0023794:	00a107a3          	sb	a0,15(sp)
c0023798:	0400006f          	j	c00237d8 <_ZN5riscv8register6mcause9Interrupt4from17h963106346624c1b3E+0x11c>
c002379c:	00500513          	li	a0,5
c00237a0:	00a107a3          	sb	a0,15(sp)
c00237a4:	0340006f          	j	c00237d8 <_ZN5riscv8register6mcause9Interrupt4from17h963106346624c1b3E+0x11c>
c00237a8:	00600513          	li	a0,6
c00237ac:	00a107a3          	sb	a0,15(sp)
c00237b0:	0280006f          	j	c00237d8 <_ZN5riscv8register6mcause9Interrupt4from17h963106346624c1b3E+0x11c>
c00237b4:	00700513          	li	a0,7
c00237b8:	00a107a3          	sb	a0,15(sp)
c00237bc:	01c0006f          	j	c00237d8 <_ZN5riscv8register6mcause9Interrupt4from17h963106346624c1b3E+0x11c>
c00237c0:	00800513          	li	a0,8
c00237c4:	00a107a3          	sb	a0,15(sp)
c00237c8:	0100006f          	j	c00237d8 <_ZN5riscv8register6mcause9Interrupt4from17h963106346624c1b3E+0x11c>
c00237cc:	00900513          	li	a0,9
c00237d0:	00a107a3          	sb	a0,15(sp)
c00237d4:	0040006f          	j	c00237d8 <_ZN5riscv8register6mcause9Interrupt4from17h963106346624c1b3E+0x11c>
c00237d8:	00f10503          	lb	a0,15(sp)
c00237dc:	01010113          	addi	sp,sp,16
c00237e0:	00008067          	ret

c00237e4 <_ZN5riscv8register6mcause9Exception4from17h75a7bb191c5e881eE>:
c00237e4:	ff010113          	addi	sp,sp,-16
c00237e8:	00a12423          	sw	a0,8(sp)
c00237ec:	00050593          	mv	a1,a0
c00237f0:	00050613          	mv	a2,a0
c00237f4:	00000693          	li	a3,0
c00237f8:	00b12223          	sw	a1,4(sp)
c00237fc:	00c12023          	sw	a2,0(sp)
c0023800:	0cd50c63          	beq	a0,a3,c00238d8 <_ZN5riscv8register6mcause9Exception4from17h75a7bb191c5e881eE+0xf4>
c0023804:	0040006f          	j	c0023808 <_ZN5riscv8register6mcause9Exception4from17h75a7bb191c5e881eE+0x24>
c0023808:	00100513          	li	a0,1
c002380c:	00412583          	lw	a1,4(sp)
c0023810:	0ca58a63          	beq	a1,a0,c00238e4 <_ZN5riscv8register6mcause9Exception4from17h75a7bb191c5e881eE+0x100>
c0023814:	0040006f          	j	c0023818 <_ZN5riscv8register6mcause9Exception4from17h75a7bb191c5e881eE+0x34>
c0023818:	00200513          	li	a0,2
c002381c:	00412583          	lw	a1,4(sp)
c0023820:	0ca58863          	beq	a1,a0,c00238f0 <_ZN5riscv8register6mcause9Exception4from17h75a7bb191c5e881eE+0x10c>
c0023824:	0040006f          	j	c0023828 <_ZN5riscv8register6mcause9Exception4from17h75a7bb191c5e881eE+0x44>
c0023828:	00300513          	li	a0,3
c002382c:	00412583          	lw	a1,4(sp)
c0023830:	0ca58663          	beq	a1,a0,c00238fc <_ZN5riscv8register6mcause9Exception4from17h75a7bb191c5e881eE+0x118>
c0023834:	0040006f          	j	c0023838 <_ZN5riscv8register6mcause9Exception4from17h75a7bb191c5e881eE+0x54>
c0023838:	00400513          	li	a0,4
c002383c:	00412583          	lw	a1,4(sp)
c0023840:	0ca58463          	beq	a1,a0,c0023908 <_ZN5riscv8register6mcause9Exception4from17h75a7bb191c5e881eE+0x124>
c0023844:	0040006f          	j	c0023848 <_ZN5riscv8register6mcause9Exception4from17h75a7bb191c5e881eE+0x64>
c0023848:	00500513          	li	a0,5
c002384c:	00412583          	lw	a1,4(sp)
c0023850:	0ca58263          	beq	a1,a0,c0023914 <_ZN5riscv8register6mcause9Exception4from17h75a7bb191c5e881eE+0x130>
c0023854:	0040006f          	j	c0023858 <_ZN5riscv8register6mcause9Exception4from17h75a7bb191c5e881eE+0x74>
c0023858:	00600513          	li	a0,6
c002385c:	00412583          	lw	a1,4(sp)
c0023860:	0ca58063          	beq	a1,a0,c0023920 <_ZN5riscv8register6mcause9Exception4from17h75a7bb191c5e881eE+0x13c>
c0023864:	0040006f          	j	c0023868 <_ZN5riscv8register6mcause9Exception4from17h75a7bb191c5e881eE+0x84>
c0023868:	00700513          	li	a0,7
c002386c:	00412583          	lw	a1,4(sp)
c0023870:	0aa58e63          	beq	a1,a0,c002392c <_ZN5riscv8register6mcause9Exception4from17h75a7bb191c5e881eE+0x148>
c0023874:	0040006f          	j	c0023878 <_ZN5riscv8register6mcause9Exception4from17h75a7bb191c5e881eE+0x94>
c0023878:	00800513          	li	a0,8
c002387c:	00412583          	lw	a1,4(sp)
c0023880:	0aa58c63          	beq	a1,a0,c0023938 <_ZN5riscv8register6mcause9Exception4from17h75a7bb191c5e881eE+0x154>
c0023884:	0040006f          	j	c0023888 <_ZN5riscv8register6mcause9Exception4from17h75a7bb191c5e881eE+0xa4>
c0023888:	00900513          	li	a0,9
c002388c:	00412583          	lw	a1,4(sp)
c0023890:	0aa58a63          	beq	a1,a0,c0023944 <_ZN5riscv8register6mcause9Exception4from17h75a7bb191c5e881eE+0x160>
c0023894:	0040006f          	j	c0023898 <_ZN5riscv8register6mcause9Exception4from17h75a7bb191c5e881eE+0xb4>
c0023898:	00b00513          	li	a0,11
c002389c:	00412583          	lw	a1,4(sp)
c00238a0:	0aa58863          	beq	a1,a0,c0023950 <_ZN5riscv8register6mcause9Exception4from17h75a7bb191c5e881eE+0x16c>
c00238a4:	0040006f          	j	c00238a8 <_ZN5riscv8register6mcause9Exception4from17h75a7bb191c5e881eE+0xc4>
c00238a8:	00c00513          	li	a0,12
c00238ac:	00412583          	lw	a1,4(sp)
c00238b0:	0aa58663          	beq	a1,a0,c002395c <_ZN5riscv8register6mcause9Exception4from17h75a7bb191c5e881eE+0x178>
c00238b4:	0040006f          	j	c00238b8 <_ZN5riscv8register6mcause9Exception4from17h75a7bb191c5e881eE+0xd4>
c00238b8:	00d00513          	li	a0,13
c00238bc:	00412583          	lw	a1,4(sp)
c00238c0:	0aa58463          	beq	a1,a0,c0023968 <_ZN5riscv8register6mcause9Exception4from17h75a7bb191c5e881eE+0x184>
c00238c4:	0040006f          	j	c00238c8 <_ZN5riscv8register6mcause9Exception4from17h75a7bb191c5e881eE+0xe4>
c00238c8:	00f00513          	li	a0,15
c00238cc:	00412583          	lw	a1,4(sp)
c00238d0:	0aa58263          	beq	a1,a0,c0023974 <_ZN5riscv8register6mcause9Exception4from17h75a7bb191c5e881eE+0x190>
c00238d4:	0ac0006f          	j	c0023980 <_ZN5riscv8register6mcause9Exception4from17h75a7bb191c5e881eE+0x19c>
c00238d8:	00000513          	li	a0,0
c00238dc:	00a107a3          	sb	a0,15(sp)
c00238e0:	0ac0006f          	j	c002398c <_ZN5riscv8register6mcause9Exception4from17h75a7bb191c5e881eE+0x1a8>
c00238e4:	00100513          	li	a0,1
c00238e8:	00a107a3          	sb	a0,15(sp)
c00238ec:	0a00006f          	j	c002398c <_ZN5riscv8register6mcause9Exception4from17h75a7bb191c5e881eE+0x1a8>
c00238f0:	00200513          	li	a0,2
c00238f4:	00a107a3          	sb	a0,15(sp)
c00238f8:	0940006f          	j	c002398c <_ZN5riscv8register6mcause9Exception4from17h75a7bb191c5e881eE+0x1a8>
c00238fc:	00300513          	li	a0,3
c0023900:	00a107a3          	sb	a0,15(sp)
c0023904:	0880006f          	j	c002398c <_ZN5riscv8register6mcause9Exception4from17h75a7bb191c5e881eE+0x1a8>
c0023908:	00400513          	li	a0,4
c002390c:	00a107a3          	sb	a0,15(sp)
c0023910:	07c0006f          	j	c002398c <_ZN5riscv8register6mcause9Exception4from17h75a7bb191c5e881eE+0x1a8>
c0023914:	00500513          	li	a0,5
c0023918:	00a107a3          	sb	a0,15(sp)
c002391c:	0700006f          	j	c002398c <_ZN5riscv8register6mcause9Exception4from17h75a7bb191c5e881eE+0x1a8>
c0023920:	00600513          	li	a0,6
c0023924:	00a107a3          	sb	a0,15(sp)
c0023928:	0640006f          	j	c002398c <_ZN5riscv8register6mcause9Exception4from17h75a7bb191c5e881eE+0x1a8>
c002392c:	00700513          	li	a0,7
c0023930:	00a107a3          	sb	a0,15(sp)
c0023934:	0580006f          	j	c002398c <_ZN5riscv8register6mcause9Exception4from17h75a7bb191c5e881eE+0x1a8>
c0023938:	00800513          	li	a0,8
c002393c:	00a107a3          	sb	a0,15(sp)
c0023940:	04c0006f          	j	c002398c <_ZN5riscv8register6mcause9Exception4from17h75a7bb191c5e881eE+0x1a8>
c0023944:	00900513          	li	a0,9
c0023948:	00a107a3          	sb	a0,15(sp)
c002394c:	0400006f          	j	c002398c <_ZN5riscv8register6mcause9Exception4from17h75a7bb191c5e881eE+0x1a8>
c0023950:	00a00513          	li	a0,10
c0023954:	00a107a3          	sb	a0,15(sp)
c0023958:	0340006f          	j	c002398c <_ZN5riscv8register6mcause9Exception4from17h75a7bb191c5e881eE+0x1a8>
c002395c:	00b00513          	li	a0,11
c0023960:	00a107a3          	sb	a0,15(sp)
c0023964:	0280006f          	j	c002398c <_ZN5riscv8register6mcause9Exception4from17h75a7bb191c5e881eE+0x1a8>
c0023968:	00c00513          	li	a0,12
c002396c:	00a107a3          	sb	a0,15(sp)
c0023970:	01c0006f          	j	c002398c <_ZN5riscv8register6mcause9Exception4from17h75a7bb191c5e881eE+0x1a8>
c0023974:	00d00513          	li	a0,13
c0023978:	00a107a3          	sb	a0,15(sp)
c002397c:	0100006f          	j	c002398c <_ZN5riscv8register6mcause9Exception4from17h75a7bb191c5e881eE+0x1a8>
c0023980:	00e00513          	li	a0,14
c0023984:	00a107a3          	sb	a0,15(sp)
c0023988:	0040006f          	j	c002398c <_ZN5riscv8register6mcause9Exception4from17h75a7bb191c5e881eE+0x1a8>
c002398c:	00f10503          	lb	a0,15(sp)
c0023990:	01010113          	addi	sp,sp,16
c0023994:	00008067          	ret

c0023998 <_ZN5riscv8register6mcause6Mcause4code17hfd810ace9076c519E>:
c0023998:	ff010113          	addi	sp,sp,-16
c002399c:	00a12623          	sw	a0,12(sp)
c00239a0:	00050593          	mv	a1,a0
c00239a4:	00052503          	lw	a0,0(a0)
c00239a8:	00b12423          	sw	a1,8(sp)
c00239ac:	00a12223          	sw	a0,4(sp)
c00239b0:	0040006f          	j	c00239b4 <_ZN5riscv8register6mcause6Mcause4code17hfd810ace9076c519E+0x1c>
c00239b4:	80000537          	lui	a0,0x80000
c00239b8:	fff50513          	addi	a0,a0,-1 # 7fffffff <bootstacktop+0xbff5afff>
c00239bc:	00412583          	lw	a1,4(sp)
c00239c0:	00a5f533          	and	a0,a1,a0
c00239c4:	01010113          	addi	sp,sp,16
c00239c8:	00008067          	ret

c00239cc <_ZN7rcore327context9TrapFrame13increase_sepc17hc13e73a38041dcdaE>:
c00239cc:	ff010113          	addi	sp,sp,-16
c00239d0:	00112623          	sw	ra,12(sp)
c00239d4:	00a12423          	sw	a0,8(sp)
c00239d8:	00050593          	mv	a1,a0
c00239dc:	08452503          	lw	a0,132(a0)
c00239e0:	00450613          	addi	a2,a0,4
c00239e4:	00b12223          	sw	a1,4(sp)
c00239e8:	00c12023          	sw	a2,0(sp)
c00239ec:	02a66063          	bltu	a2,a0,c0023a0c <_ZN7rcore327context9TrapFrame13increase_sepc17hc13e73a38041dcdaE+0x40>
c00239f0:	0040006f          	j	c00239f4 <_ZN7rcore327context9TrapFrame13increase_sepc17hc13e73a38041dcdaE+0x28>
c00239f4:	00812503          	lw	a0,8(sp)
c00239f8:	00012583          	lw	a1,0(sp)
c00239fc:	08b52223          	sw	a1,132(a0)
c0023a00:	00c12083          	lw	ra,12(sp)
c0023a04:	01010113          	addi	sp,sp,16
c0023a08:	00008067          	ret
c0023a0c:	c0024537          	lui	a0,0xc0024
c0023a10:	77c50513          	addi	a0,a0,1916 # c002477c <bootstacktop+0xfff7f77c>
c0023a14:	ffffe097          	auipc	ra,0xffffe
c0023a18:	b44080e7          	jalr	-1212(ra) # c0021558 <_ZN4core9panicking5panic17habb8bf93ce0fcf0dE>
c0023a1c:	ffffe097          	auipc	ra,0xffffe
c0023a20:	ebc080e7          	jalr	-324(ra) # c00218d8 <abort>

c0023a24 <_ZN7rcore327context9TrapFrame15print_trapframe17hdbb8811634fe78e1E>:
c0023a24:	f6010113          	addi	sp,sp,-160
c0023a28:	08112e23          	sw	ra,156(sp)
c0023a2c:	02a12623          	sw	a0,44(sp)
c0023a30:	08c50593          	addi	a1,a0,140
c0023a34:	02a12423          	sw	a0,40(sp)
c0023a38:	00058513          	mv	a0,a1
c0023a3c:	00000097          	auipc	ra,0x0
c0023a40:	b98080e7          	jalr	-1128(ra) # c00235d4 <_ZN5riscv8register6mcause6Mcause4bits17heeba6c3ee9597247E>
c0023a44:	08a12423          	sw	a0,136(sp)
c0023a48:	02812503          	lw	a0,40(sp)
c0023a4c:	02a12223          	sw	a0,36(sp)
c0023a50:	0040006f          	j	c0023a54 <_ZN7rcore327context9TrapFrame15print_trapframe17hdbb8811634fe78e1E+0x30>
c0023a54:	02c12503          	lw	a0,44(sp)
c0023a58:	08452503          	lw	a0,132(a0)
c0023a5c:	08a12623          	sw	a0,140(sp)
c0023a60:	08c10513          	addi	a0,sp,140
c0023a64:	08a12223          	sw	a0,132(sp)
c0023a68:	08a12a23          	sw	a0,148(sp)
c0023a6c:	08810513          	addi	a0,sp,136
c0023a70:	08a12023          	sw	a0,128(sp)
c0023a74:	08a12823          	sw	a0,144(sp)
c0023a78:	c00215b7          	lui	a1,0xc0021
c0023a7c:	33c58593          	addi	a1,a1,828 # c002133c <bootstacktop+0xfff7c33c>
c0023a80:	ffffd097          	auipc	ra,0xffffd
c0023a84:	a10080e7          	jalr	-1520(ra) # c0020490 <_ZN4core3fmt10ArgumentV13new17h1e2051a84d1ba9a2E>
c0023a88:	02b12023          	sw	a1,32(sp)
c0023a8c:	00a12e23          	sw	a0,28(sp)
c0023a90:	0040006f          	j	c0023a94 <_ZN7rcore327context9TrapFrame15print_trapframe17hdbb8811634fe78e1E+0x70>
c0023a94:	09412503          	lw	a0,148(sp)
c0023a98:	c00215b7          	lui	a1,0xc0021
c0023a9c:	33c58593          	addi	a1,a1,828 # c002133c <bootstacktop+0xfff7c33c>
c0023aa0:	ffffd097          	auipc	ra,0xffffd
c0023aa4:	a44080e7          	jalr	-1468(ra) # c00204e4 <_ZN4core3fmt10ArgumentV13new17h2724bddd433b3160E>
c0023aa8:	00b12c23          	sw	a1,24(sp)
c0023aac:	00a12a23          	sw	a0,20(sp)
c0023ab0:	0040006f          	j	c0023ab4 <_ZN7rcore327context9TrapFrame15print_trapframe17hdbb8811634fe78e1E+0x90>
c0023ab4:	01812503          	lw	a0,24(sp)
c0023ab8:	06a12e23          	sw	a0,124(sp)
c0023abc:	01412583          	lw	a1,20(sp)
c0023ac0:	06b12c23          	sw	a1,120(sp)
c0023ac4:	02012603          	lw	a2,32(sp)
c0023ac8:	06c12a23          	sw	a2,116(sp)
c0023acc:	01c12683          	lw	a3,28(sp)
c0023ad0:	06d12823          	sw	a3,112(sp)
c0023ad4:	c0025737          	lui	a4,0xc0025
c0023ad8:	80070593          	addi	a1,a4,-2048 # c0024800 <bootstacktop+0xfff7f800>
c0023adc:	05810513          	addi	a0,sp,88
c0023ae0:	00300613          	li	a2,3
c0023ae4:	07010693          	addi	a3,sp,112
c0023ae8:	00200713          	li	a4,2
c0023aec:	ffffe097          	auipc	ra,0xffffe
c0023af0:	154080e7          	jalr	340(ra) # c0021c40 <_ZN4core3fmt9Arguments6new_v117hc9a772a58b64bf16E>
c0023af4:	0040006f          	j	c0023af8 <_ZN7rcore327context9TrapFrame15print_trapframe17hdbb8811634fe78e1E+0xd4>
c0023af8:	05810513          	addi	a0,sp,88
c0023afc:	08a12c23          	sw	a0,152(sp)
c0023b00:	04a12a23          	sw	a0,84(sp)
c0023b04:	c00205b7          	lui	a1,0xc0020
c0023b08:	63c58593          	addi	a1,a1,1596 # c002063c <bootstacktop+0xfff7b63c>
c0023b0c:	ffffd097          	auipc	ra,0xffffd
c0023b10:	a80080e7          	jalr	-1408(ra) # c002058c <_ZN4core3fmt10ArgumentV13new17h6576345e0293bb5bE>
c0023b14:	00b12823          	sw	a1,16(sp)
c0023b18:	00a12623          	sw	a0,12(sp)
c0023b1c:	0040006f          	j	c0023b20 <_ZN7rcore327context9TrapFrame15print_trapframe17hdbb8811634fe78e1E+0xfc>
c0023b20:	01012503          	lw	a0,16(sp)
c0023b24:	04a12623          	sw	a0,76(sp)
c0023b28:	00c12583          	lw	a1,12(sp)
c0023b2c:	04b12423          	sw	a1,72(sp)
c0023b30:	c0024637          	lui	a2,0xc0024
c0023b34:	79860593          	addi	a1,a2,1944 # c0024798 <bootstacktop+0xfff7f798>
c0023b38:	03010513          	addi	a0,sp,48
c0023b3c:	00200613          	li	a2,2
c0023b40:	04810693          	addi	a3,sp,72
c0023b44:	00100713          	li	a4,1
c0023b48:	ffffe097          	auipc	ra,0xffffe
c0023b4c:	0f8080e7          	jalr	248(ra) # c0021c40 <_ZN4core3fmt9Arguments6new_v117hc9a772a58b64bf16E>
c0023b50:	0040006f          	j	c0023b54 <_ZN7rcore327context9TrapFrame15print_trapframe17hdbb8811634fe78e1E+0x130>
c0023b54:	03010513          	addi	a0,sp,48
c0023b58:	ffffe097          	auipc	ra,0xffffe
c0023b5c:	33c080e7          	jalr	828(ra) # c0021e94 <_ZN7rcore322io6_print17hf550fc77485105c8E>
c0023b60:	0040006f          	j	c0023b64 <_ZN7rcore327context9TrapFrame15print_trapframe17hdbb8811634fe78e1E+0x140>
c0023b64:	09c12083          	lw	ra,156(sp)
c0023b68:	0a010113          	addi	sp,sp,160
c0023b6c:	00008067          	ret

c0023b70 <rust_main>:
c0023b70:	f5010113          	addi	sp,sp,-176
c0023b74:	0a112623          	sw	ra,172(sp)
c0023b78:	c0025537          	lui	a0,0xc0025
c0023b7c:	83850593          	addi	a1,a0,-1992 # c0024838 <bootstacktop+0xfff7f838>
c0023b80:	c0025537          	lui	a0,0xc0025
c0023b84:	81850693          	addi	a3,a0,-2024 # c0024818 <bootstacktop+0xfff7f818>
c0023b88:	00000513          	li	a0,0
c0023b8c:	04810613          	addi	a2,sp,72
c0023b90:	00100713          	li	a4,1
c0023b94:	00a12e23          	sw	a0,28(sp)
c0023b98:	00060513          	mv	a0,a2
c0023b9c:	00070613          	mv	a2,a4
c0023ba0:	01c12703          	lw	a4,28(sp)
c0023ba4:	ffffe097          	auipc	ra,0xffffe
c0023ba8:	09c080e7          	jalr	156(ra) # c0021c40 <_ZN4core3fmt9Arguments6new_v117hc9a772a58b64bf16E>
c0023bac:	0040006f          	j	c0023bb0 <rust_main+0x40>
c0023bb0:	04810513          	addi	a0,sp,72
c0023bb4:	06a12223          	sw	a0,100(sp)
c0023bb8:	04a12223          	sw	a0,68(sp)
c0023bbc:	c00205b7          	lui	a1,0xc0020
c0023bc0:	63c58593          	addi	a1,a1,1596 # c002063c <bootstacktop+0xfff7b63c>
c0023bc4:	ffffd097          	auipc	ra,0xffffd
c0023bc8:	9c8080e7          	jalr	-1592(ra) # c002058c <_ZN4core3fmt10ArgumentV13new17h6576345e0293bb5bE>
c0023bcc:	00b12c23          	sw	a1,24(sp)
c0023bd0:	00a12a23          	sw	a0,20(sp)
c0023bd4:	0040006f          	j	c0023bd8 <rust_main+0x68>
c0023bd8:	01812503          	lw	a0,24(sp)
c0023bdc:	02a12e23          	sw	a0,60(sp)
c0023be0:	01412583          	lw	a1,20(sp)
c0023be4:	02b12c23          	sw	a1,56(sp)
c0023be8:	c0025637          	lui	a2,0xc0025
c0023bec:	81c60593          	addi	a1,a2,-2020 # c002481c <bootstacktop+0xfff7f81c>
c0023bf0:	02010513          	addi	a0,sp,32
c0023bf4:	00200613          	li	a2,2
c0023bf8:	03810693          	addi	a3,sp,56
c0023bfc:	00100713          	li	a4,1
c0023c00:	ffffe097          	auipc	ra,0xffffe
c0023c04:	040080e7          	jalr	64(ra) # c0021c40 <_ZN4core3fmt9Arguments6new_v117hc9a772a58b64bf16E>
c0023c08:	0040006f          	j	c0023c0c <rust_main+0x9c>
c0023c0c:	02010513          	addi	a0,sp,32
c0023c10:	ffffe097          	auipc	ra,0xffffe
c0023c14:	284080e7          	jalr	644(ra) # c0021e94 <_ZN7rcore322io6_print17hf550fc77485105c8E>
c0023c18:	0040006f          	j	c0023c1c <rust_main+0xac>
c0023c1c:	ffffc097          	auipc	ra,0xffffc
c0023c20:	550080e7          	jalr	1360(ra) # c002016c <init>
c0023c24:	0040006f          	j	c0023c28 <rust_main+0xb8>
c0023c28:	00000097          	auipc	ra,0x0
c0023c2c:	920080e7          	jalr	-1760(ra) # c0023548 <_ZN7rcore323sbi11other_ecall17h99b0d2400c7569cdE>
c0023c30:	0040006f          	j	c0023c34 <rust_main+0xc4>
c0023c34:	c0025537          	lui	a0,0xc0025
c0023c38:	84850593          	addi	a1,a0,-1976 # c0024848 <bootstacktop+0xfff7f848>
c0023c3c:	c0025537          	lui	a0,0xc0025
c0023c40:	81850693          	addi	a3,a0,-2024 # c0024818 <bootstacktop+0xfff7f818>
c0023c44:	00000513          	li	a0,0
c0023c48:	09010613          	addi	a2,sp,144
c0023c4c:	00100713          	li	a4,1
c0023c50:	00a12823          	sw	a0,16(sp)
c0023c54:	00060513          	mv	a0,a2
c0023c58:	00070613          	mv	a2,a4
c0023c5c:	01012703          	lw	a4,16(sp)
c0023c60:	ffffe097          	auipc	ra,0xffffe
c0023c64:	fe0080e7          	jalr	-32(ra) # c0021c40 <_ZN4core3fmt9Arguments6new_v117hc9a772a58b64bf16E>
c0023c68:	0040006f          	j	c0023c6c <rust_main+0xfc>
c0023c6c:	09010513          	addi	a0,sp,144
c0023c70:	0aa12423          	sw	a0,168(sp)
c0023c74:	08a12623          	sw	a0,140(sp)
c0023c78:	c00205b7          	lui	a1,0xc0020
c0023c7c:	63c58593          	addi	a1,a1,1596 # c002063c <bootstacktop+0xfff7b63c>
c0023c80:	ffffd097          	auipc	ra,0xffffd
c0023c84:	90c080e7          	jalr	-1780(ra) # c002058c <_ZN4core3fmt10ArgumentV13new17h6576345e0293bb5bE>
c0023c88:	00b12623          	sw	a1,12(sp)
c0023c8c:	00a12423          	sw	a0,8(sp)
c0023c90:	0040006f          	j	c0023c94 <rust_main+0x124>
c0023c94:	00c12503          	lw	a0,12(sp)
c0023c98:	08a12223          	sw	a0,132(sp)
c0023c9c:	00812583          	lw	a1,8(sp)
c0023ca0:	08b12023          	sw	a1,128(sp)
c0023ca4:	c0025637          	lui	a2,0xc0025
c0023ca8:	81c60593          	addi	a1,a2,-2020 # c002481c <bootstacktop+0xfff7f81c>
c0023cac:	06810513          	addi	a0,sp,104
c0023cb0:	00200613          	li	a2,2
c0023cb4:	08010693          	addi	a3,sp,128
c0023cb8:	00100713          	li	a4,1
c0023cbc:	ffffe097          	auipc	ra,0xffffe
c0023cc0:	f84080e7          	jalr	-124(ra) # c0021c40 <_ZN4core3fmt9Arguments6new_v117hc9a772a58b64bf16E>
c0023cc4:	0040006f          	j	c0023cc8 <rust_main+0x158>
c0023cc8:	06810513          	addi	a0,sp,104
c0023ccc:	ffffe097          	auipc	ra,0xffffe
c0023cd0:	1c8080e7          	jalr	456(ra) # c0021e94 <_ZN7rcore322io6_print17hf550fc77485105c8E>
c0023cd4:	0040006f          	j	c0023cd8 <rust_main+0x168>
c0023cd8:	0040006f          	j	c0023cdc <rust_main+0x16c>
c0023cdc:	0000006f          	j	c0023cdc <rust_main+0x16c>
	...
